(dp0
(S'Expr'
p1
I109
tp2
(lp3
(S'apu_lat_i'
p4
S'token'
p5
S'181'
p6
S'28'
p7
tp8
as(g1
I35
tp9
(lp10
(g1
I29
tp11
a(S'&'
p12
g12
S'111'
p13
S'33'
p14
tp15
a(g1
I34
tp16
as(S'BusBit'
p17
I10
tp18
(lp19
(S'['
p20
g20
S'200'
p21
S'27'
p22
tp23
a(g1
I145
tp24
a(S']'
p25
g25
S'200'
p26
S'29'
p27
tp28
as(g1
I148
tp29
(lp30
(S'addr_req'
p31
S'token'
p32
S'200'
p33
S'65'
p34
tp35
as(S'Width'
p36
I7
tp37
(lp38
(g20
g20
S'74'
p39
S'15'
p40
tp41
a(g1
I13
tp42
a(S':'
p43
g43
S'74'
p44
S'17'
p45
tp46
a(g1
I14
tp47
a(g25
g25
S'74'
p48
S'19'
p49
tp50
as(S'Mstuff'
p51
I42
tp52
(lp53
(S'Assign'
p54
I29
tp55
as(S'Module_stuffs'
p56
I29
tp57
(lp58
(g51
I18
tp59
a(g56
I28
tp60
as(g1
I119
tp61
(lp62
(S'('
p63
g63
S'192'
p64
S'37'
p65
tp66
a(g1
I118
tp67
a(S')'
p68
g68
S'192'
p69
S'64'
p70
tp71
as(g1
I254
tp72
(lp73
(S'!'
p74
g74
S'226'
p75
S'39'
p76
tp77
a(g1
I253
tp78
as(g56
I16
tp79
(lp80
(g51
I31
tp81
a(g56
I15
tp82
as(g1
I267
tp83
(lp84
(S'addr_inflight'
p85
S'token'
p86
S'245'
p87
S'32'
p88
tp89
as(S'Header_list'
p90
I1
tp91
(lp92
(S'Header_item'
p93
I1
tp94
as(g1
I89
tp95
(lp96
(S'returned_waiting'
p97
S'token'
p98
S'152'
p99
S'27'
p100
tp101
as(S'PureExt'
p102
I7
tp103
(lp104
(S'output'
p105
S'output'
p106
S'60'
p107
S'7'
p108
tp109
as(S'LSH'
p110
I43
tp111
(lp112
(S'read_dep_inflight'
p113
S'token'
p114
S'208'
p115
S'25'
p116
tp117
as(g56
I8
tp118
(lp119
(g51
I39
tp120
a(g56
I7
tp121
as(g1
I192
tp122
(lp123
(g1
I189
tp124
a(g12
g12
S'209'
p125
S'68'
p126
tp127
a(g1
I191
tp128
as(g54
I29
tp129
(lp130
(S'assign'
p131
S'assign'
p132
S'254'
p133
g108
tp134
a(g110
I61
tp135
a(S'='
p136
g136
S'254'
p137
S'21'
p138
tp139
a(g1
I271
tp140
a(S';'
p141
g141
S'254'
p142
S'33'
p143
tp144
as(g93
I3
tp145
(lp146
(S'ExtDir'
p147
I3
tp148
a(S'enable_i'
p149
S'token'
p150
S'54'
p151
S'47'
p152
tp153
as(S'IntKind'
p154
I13
tp155
(lp156
(S'logic'
p157
S'logic'
p158
S'72'
p159
S'13'
p160
tp161
as(g110
I13
tp162
(lp163
(S'addr_inflight'
p164
S'token'
p165
S'134'
p166
S'19'
p167
tp168
as(g154
I23
tp169
(lp170
(S'logic'
p171
S'logic'
p172
S'92'
p173
S'6'
p174
tp175
as(S'AlwaysKind'
p176
I3
tp177
(lp178
(S'always_ff'
p179
S'always_ff'
p180
S'176'
p181
S'10'
p182
tp183
as(S'Statement'
p184
I28
tp185
(lp186
(g110
I25
tp187
a(g136
g136
S'158'
p188
S'28'
p189
tp190
a(g1
I93
tp191
a(g141
g141
S'158'
p192
S'32'
p193
tp194
as(g1
I12
tp195
(lp196
(S'0'
p197
S'number'
p198
S'71'
p199
S'18'
p200
tp201
as(S'Tokens_list'
p202
I22
tp203
(lp204
(S'write_deps_req'
p205
S'token'
p206
S'104'
p207
S'27'
p208
tp209
a(S','
p210
g210
S'104'
p211
S'28'
p212
tp213
a(g202
I21
tp214
as(S'Definition'
p215
I3
tp216
(lp217
(S'IntDir'
p218
I3
tp219
a(g202
I8
tp220
a(g141
g141
S'94'
p221
S'62'
p222
tp223
as(S'Always'
p224
I1
tp225
(lp226
(g176
I1
tp227
a(S'When'
p228
I1
tp229
a(g184
I12
tp230
as(g218
I6
tp231
(lp232
(g154
I28
tp233
as(g1
I191
tp234
(lp235
(g74
g74
S'209'
p236
S'70'
p237
tp238
a(g1
I190
tp239
as(g1
I22
tp240
(lp241
(g197
S'number'
p242
S'93'
p243
S'11'
p244
tp245
as(g1
I157
tp246
(lp247
(S'addr_inflight'
p248
S'token'
p249
S'201'
p250
S'70'
p251
tp252
as(g51
I19
tp253
(lp254
(g54
I6
tp255
as(S'Statements'
p256
I2
tp257
(lp258
(g256
I1
tp259
a(g184
I2
tp260
as(g1
I120
tp261
(lp262
(S'i'
p263
S'token'
p264
S'192'
p265
S'91'
p266
tp267
as(g1
I231
tp268
(lp269
(S"2'h1"
p270
S'hex'
p271
S'225'
p272
S'61'
p273
tp274
as(g147
I5
tp275
(lp276
(g102
I5
tp277
a(g154
I5
tp278
as(g1
I66
tp279
(lp280
(S"'0"
p281
S'udig'
p282
S'129'
p283
S'27'
p284
tp285
as(g110
I50
tp286
(lp287
(S'stall_full'
p288
S'token'
p289
S'221'
p290
S'18'
p291
tp292
as(g1
I201
tp293
(lp294
(S'|'
p295
g295
S'211'
p296
S'30'
p297
tp298
a(g1
I200
tp299
as(g54
I22
tp300
(lp301
(S'assign'
p302
S'assign'
p303
S'221'
p304
g108
tp305
a(g110
I50
tp306
a(g136
g136
S'221'
p307
S'25'
p308
tp309
a(g1
I226
tp310
a(g141
g141
S'221'
p311
S'57'
p312
tp313
as(g93
I10
tp314
(lp315
(g147
I10
tp316
a(S'stall_o'
p317
S'token'
p318
S'67'
p319
S'46'
p320
tp321
as(g90
I20
tp322
(lp323
(g90
I19
tp324
a(g210
g210
S'84'
p325
S'56'
p326
tp327
a(g93
I20
tp328
as(g56
I46
tp329
(lp330
(g51
I1
tp331
a(g56
I45
tp332
as(g102
I20
tp333
(lp334
(S'output'
p335
S'output'
p336
S'85'
p337
g108
tp338
as(g110
I20
tp339
(lp340
(S'addr_inflight_dn'
p341
S'token'
p342
S'147'
p343
S'23'
p344
tp345
as(g1
I211
tp346
(lp347
(S'returned_waiting'
p348
S'token'
p349
S'212'
p350
S'86'
p351
tp352
as(g154
I21
tp353
(lp354
(S'logic'
p355
S'logic'
p356
S'86'
p357
S'12'
p358
tp359
as(g1
I263
tp360
(lp361
(S"'0"
p362
S'udig'
p363
S'241'
p364
S'19'
p365
tp366
as(S'Hparams'
p367
I1
tp368
(lp369
s(g184
I23
tp370
(lp371
(g110
I23
tp372
a(g136
g136
S'153'
p373
S'28'
p374
tp375
a(g1
I90
tp376
a(g141
g141
S'153'
p377
S'34'
p378
tp379
as(g1
I53
tp380
(lp381
(S'valid_waiting'
p382
S'token'
p383
S'121'
p384
S'82'
p385
tp386
as(g202
I25
tp387
(lp388
(S'read_dep_req'
p389
S'token'
p390
S'105'
p391
S'25'
p392
tp393
a(g210
g210
S'105'
p394
S'26'
p395
tp396
a(g202
I24
tp397
as(S'GenStatement'
p398
I10
tp399
(lp400
(S'GenFor_statement'
p401
I2
tp402
as(g51
I2
tp403
(lp404
(g215
I2
tp405
as(g215
I4
tp406
(lp407
(g218
I4
tp408
a(g202
I10
tp409
a(g141
g141
S'95'
p410
S'57'
p411
tp412
as(g256
I35
tp413
(lp414
(g256
I34
tp415
a(g184
I52
tp416
as(g184
I9
tp417
(lp418
(g110
I14
tp419
a(S'<='
p420
S'sm_eq'
p421
S'135'
p422
S'24'
p423
tp424
a(g1
I71
tp425
a(g141
g141
S'135'
p426
S'41'
p427
tp428
as(g256
I36
tp429
(lp430
(g256
I35
tp431
a(g184
I54
tp432
as(g1
I31
tp433
(lp434
(S'stall_type'
p435
S'token'
p436
S'111'
p437
S'59'
p438
tp439
as(g202
I3
tp440
(lp441
(S'addr_req'
p442
S'token'
p443
S'92'
p444
S'29'
p445
tp446
a(g210
g210
S'92'
p447
S'30'
p448
tp449
a(g202
I2
tp450
as(g1
I134
tp451
(lp452
(S'read_regs_i'
p453
S'token'
p454
S'194'
p455
S'48'
p456
tp457
a(g17
I8
tp458
as(g56
I35
tp459
(lp460
(g51
I12
tp461
a(g56
I34
tp462
as(g51
I24
tp463
(lp464
(S'Generate'
p465
I1
tp466
as(g1
I97
tp467
(lp468
(S'returned_waiting'
p469
S'token'
p470
S'163'
p471
S'29'
p472
tp473
as(g17
I6
tp474
(lp475
(g20
g20
S'193'
p476
S'90'
p477
tp478
a(g1
I129
tp479
a(g25
g25
S'193'
p480
S'92'
p481
tp482
as(g1
I232
tp483
(lp484
(g1
I230
tp485
a(S'=='
p486
S'eq_eq'
p487
S'225'
p488
S'60'
p489
tp490
a(g1
I231
tp491
as(g36
I11
tp492
(lp493
(g20
g20
S'93'
p494
S'8'
p495
tp496
a(g1
I21
tp497
a(g43
g43
S'93'
p498
S'10'
p499
tp500
a(g1
I22
tp501
a(g25
g25
S'93'
p502
S'12'
p503
tp504
as(g1
I75
tp505
(lp506
(S'addr_waiting'
p507
S'token'
p508
S'143'
p509
S'41'
p510
tp511
as(g110
I53
tp512
(lp513
(S'stall_o'
p514
S'token'
p515
S'227'
p516
S'15'
p517
tp518
as(g1
I242
tp519
(lp520
(g1
I237
tp521
a(g12
g12
S'225'
p522
S'88'
p523
tp524
a(g1
I241
tp525
as(g256
I20
tp526
(lp527
(g256
I19
tp528
a(g184
I24
tp529
as(g93
I17
tp530
(lp531
(g147
I17
tp532
a(S'perf_type_o'
p533
S'token'
p534
S'79'
p535
S'50'
p536
tp537
as(g147
I18
tp538
(lp539
(g102
I18
tp540
a(g154
I18
tp541
as(g184
I52
tp542
(lp543
(S'if'
p544
S'if'
p545
S'244'
p546
S'5'
p547
tp548
a(g63
g63
S'244'
p549
g174
tp550
a(g1
I266
tp551
a(g68
g68
S'244'
p552
S'24'
p553
tp554
a(g184
I51
tp555
as(g102
I11
tp556
(lp557
(S'input'
p558
S'input'
p559
S'70'
p560
g174
tp561
as(g110
I31
tp562
(lp563
(S'active'
p564
S'token'
p565
S'173'
p566
S'14'
p567
tp568
as(g56
I6
tp569
(lp570
(g51
I41
tp571
a(g56
I5
tp572
as(g1
I212
tp573
(lp574
(g74
g74
S'212'
p575
S'70'
p576
tp577
a(g1
I211
tp578
as(S'GenStatements'
p579
I3
tp580
(lp581
(g579
I2
tp582
a(g398
I3
tp583
as(g54
I9
tp584
(lp585
(S'assign'
p586
S'assign'
p587
S'193'
p588
S'11'
p589
tp590
a(g110
I36
tp591
a(g136
g136
S'193'
p592
S'35'
p593
tp594
a(g1
I131
tp595
a(g141
g141
S'193'
p596
S'93'
p597
tp598
as(g1
I264
tp599
(lp600
(S'returned_req'
p601
S'token'
p602
S'242'
p603
S'18'
p604
tp605
as(g56
I23
tp606
(lp607
(g51
I24
tp608
a(g56
I22
tp609
as(g184
I46
tp610
(lp611
(S'if'
p612
S'if'
p613
S'177'
p614
g547
tp615
a(g63
g63
S'177'
p616
g174
tp617
a(g1
I106
tp618
a(g68
g68
S'177'
p619
S'14'
p620
tp621
a(g184
I41
tp622
a(S'else'
p623
S'else'
p624
S'179'
p625
S'11'
p626
tp627
a(g184
I45
tp628
as(g154
I15
tp629
(lp630
(S'logic'
p631
S'logic'
p632
S'75'
p633
S'13'
p634
tp635
as(g110
I1
tp636
(lp637
(S'valid_req'
p638
S'token'
p639
S'111'
p640
S'17'
p641
tp642
as(g1
I62
tp643
(lp644
(S'rst_ni'
p645
S'token'
p646
S'126'
p647
S'13'
p648
tp649
as(g398
I3
tp650
(lp651
(g54
I10
tp652
as(g1
I274
tp653
(lp654
(S"2'h3"
p655
S'hex'
p656
S'257'
p657
S'42'
p658
tp659
as(g1
I165
tp660
(lp661
(S'write_regs_i'
p662
S'token'
p663
S'202'
p664
S'50'
p665
tp666
a(g17
I17
tp667
as(g256
I7
tp668
(lp669
(g256
I6
tp670
a(g184
I8
tp671
as(g202
I10
tp672
(lp673
(S'valid_inflight_dn'
p674
S'token'
p675
S'95'
p676
S'38'
p677
tp678
a(g210
g210
S'95'
p679
S'39'
p680
tp681
a(g202
I9
tp682
as(g1
I143
tp683
(lp684
(S'2'
p685
S'number'
p686
S'199'
p687
S'27'
p688
tp689
as(g51
I1
tp690
(lp691
(g215
I1
tp692
as(S'Soft_assigns'
p693
I4
tp694
(lp695
(S'Soft_assign'
p696
I4
tp697
as(g1
I185
tp698
(lp699
(g1
I182
tp700
a(g12
g12
S'208'
p701
S'68'
p702
tp703
a(g1
I184
tp704
as(g1
I106
tp705
(lp706
(S'~'
p707
g707
S'177'
p708
g108
tp709
a(g1
I105
tp710
as(g17
I15
tp711
(lp712
(g20
g20
S'201'
p713
S'93'
p714
tp715
a(g1
I160
tp716
a(g25
g25
S'201'
p717
S'95'
p718
tp719
as(g1
I145
tp720
(lp721
(g263
S'token'
p722
S'200'
p723
S'28'
p724
tp725
as(g36
I12
tp726
(lp727
(g20
g20
S'100'
p728
g495
tp729
a(g1
I23
tp730
a(g43
g43
S'100'
p731
S'10'
p732
tp733
a(g1
I24
tp734
a(g25
g25
S'100'
p735
S'12'
p736
tp737
as(g51
I39
tp738
(lp739
(g54
I27
tp740
as(g1
I76
tp741
(lp742
(S'req_accepted'
p743
S'token'
p744
S'145'
p745
S'20'
p746
tp747
as(g110
I60
tp748
(lp749
(S'active_o'
p750
S'token'
p751
S'251'
p752
S'16'
p753
tp754
as(g1
I251
tp755
(lp756
(g1
I229
tp757
a(g12
g12
S'225'
p758
S'46'
p759
tp760
a(g1
I250
tp761
as(g228
I1
tp762
(lp763
(S'@'
p764
g764
S'125'
p765
S'12'
p766
tp767
a(g63
g63
S'125'
p768
S'13'
p769
tp770
a(S'When_items'
p771
I2
tp772
a(g68
g68
S'125'
p773
S'45'
p774
tp775
as(g51
I15
tp776
(lp777
(g54
I2
tp778
as(g147
I9
tp779
(lp780
(g102
I9
tp781
a(g154
I9
tp782
as(S'When_item'
p783
I2
tp784
(lp785
(S'negedge'
p786
S'negedge'
p787
S'125'
p788
S'37'
p789
tp790
a(g1
I61
tp791
as(g1
I86
tp792
(lp793
(g1
I82
tp794
a(g12
g12
S'148'
p795
S'27'
p796
tp797
a(g1
I85
tp798
as(g102
I2
tp799
(lp800
(S'input'
p801
S'input'
p802
S'51'
p803
g174
tp804
as(g110
I38
tp805
(lp806
(g263
S'token'
p807
S'199'
p808
S'30'
p809
tp810
as(g1
I221
tp811
(lp812
(g1
I219
tp813
a(g295
g295
S'215'
p814
S'44'
p815
tp816
a(g1
I220
tp817
as(g54
I2
tp818
(lp819
(S'assign'
p820
S'assign'
p821
S'112'
p822
g108
tp823
a(g110
I2
tp824
a(g136
g136
S'112'
p825
S'22'
p826
tp827
a(g1
I36
tp828
a(g141
g141
S'112'
p829
S'35'
p830
tp831
as(g93
I6
tp832
(lp833
(g147
I6
tp834
a(g36
I3
tp835
a(S'apu_waddr_o'
p836
S'token'
p837
S'59'
p838
S'50'
p839
tp840
as(g56
I44
tp841
(lp842
(g51
I3
tp843
a(g56
I43
tp844
as(g184
I33
tp845
(lp846
(g110
I29
tp847
a(g136
g136
S'164'
p848
S'28'
p849
tp850
a(g1
I98
tp851
a(g141
g141
S'164'
p852
S'32'
p853
tp854
as(g110
I8
tp855
(lp856
(S'valid_waiting'
p857
S'token'
p858
S'128'
p859
S'18'
p860
tp861
as(g1
I39
tp862
(lp863
(g1
I37
tp864
a(g12
g12
S'114'
p865
S'34'
p866
tp867
a(g1
I38
tp868
as(g1
I42
tp869
(lp870
(g1
I40
tp871
a(g12
g12
S'120'
p872
S'44'
p873
tp874
a(g1
I41
tp875
as(g1
I174
tp876
(lp877
(S'valid_req'
p878
S'token'
p879
S'207'
p880
S'61'
p881
tp882
as(g256
I19
tp883
(lp884
(g184
I23
tp885
as(g184
I27
tp886
(lp887
(S'begin'
p888
S'begin'
p889
S'145'
p890
S'43'
p891
tp892
a(g256
I21
tp893
a(S'end'
p894
S'end'
p895
S'156'
p896
g108
tp897
as(S'MainItem'
p898
I1
tp899
(lp900
(S'Module'
p901
I1
tp902
as(g1
I9
tp903
(lp904
(g547
S'number'
p905
S'70'
p906
S'21'
p907
tp908
as(g202
I13
tp909
(lp910
(S'returned_req'
p911
S'token'
p912
S'96'
p913
S'33'
p914
tp915
a(g210
g210
S'96'
p916
S'34'
p917
tp918
a(g202
I12
tp919
as(g215
I8
tp920
(lp921
(g218
I8
tp922
a(g36
I12
tp923
a(g202
I16
tp924
a(g141
g141
S'100'
p925
S'29'
p926
tp927
as(g218
I13
tp928
(lp929
(g154
I35
tp930
as(g90
I3
tp931
(lp932
(g90
I2
tp933
a(g210
g210
S'51'
p934
S'46'
p935
tp936
a(g93
I3
tp937
as(g17
I8
tp938
(lp939
(g20
g20
S'194'
p940
S'49'
p941
tp942
a(g1
I133
tp943
a(g25
g25
S'194'
p944
S'51'
p945
tp946
as(g1
I154
tp947
(lp948
(g263
S'token'
p949
S'201'
p950
S'33'
p951
tp952
as(g36
I5
tp953
(lp954
(g20
g20
S'70'
p955
S'20'
p956
tp957
a(g1
I9
tp958
a(g43
g43
S'70'
p959
S'22'
p960
tp961
a(g1
I10
tp962
a(g25
g25
S'70'
p963
S'24'
p964
tp965
as(g56
I33
tp966
(lp967
(g51
I14
tp968
a(g56
I32
tp969
as(g51
I44
tp970
(lp971
(g54
I31
tp972
as(g1
I117
tp973
(lp974
(S'addr_req'
p975
S'token'
p976
S'192'
p977
S'63'
p978
tp979
as(g1
I63
tp980
(lp981
(g707
g707
S'126'
p982
g108
tp983
a(g1
I62
tp984
as(g17
I18
tp985
(lp986
(g20
g20
S'202'
p987
S'93'
p988
tp989
a(g1
I169
tp990
a(g25
g25
S'202'
p991
S'95'
p992
tp993
as(g1
I252
tp994
(lp995
(S'valid_req'
p996
S'token'
p997
S'226'
p998
S'35'
p999
tp1000
as(g1
I105
tp1001
(lp1002
(S'rst_ni'
p1003
S'token'
p1004
S'177'
p1005
S'13'
p1006
tp1007
as(g90
I15
tp1008
(lp1009
(g90
I14
tp1010
a(g210
g210
S'74'
p1011
S'52'
p1012
tp1013
a(g93
I15
tp1014
as(g110
I62
tp1015
(lp1016
(S'perf_cont_o'
p1017
S'token'
p1018
S'255'
p1019
S'19'
p1020
tp1021
as(g1
I95
tp1022
(lp1023
(S"'0"
p1024
S'udig'
p1025
S'160'
p1026
S'31'
p1027
tp1028
as(g110
I41
tp1029
(lp1030
(S'write_deps_waiting'
p1031
S'token'
p1032
S'202'
p1033
S'30'
p1034
tp1035
a(g17
I16
tp1036
as(g1
I198
tp1037
(lp1038
(g74
g74
S'210'
p1039
S'70'
p1040
tp1041
a(g1
I197
tp1042
as(g54
I27
tp1043
(lp1044
(S'assign'
p1045
S'assign'
p1046
S'237'
p1047
g108
tp1048
a(g110
I55
tp1049
a(g136
g136
S'237'
p1050
S'32'
p1051
tp1052
a(g1
I262
tp1053
a(g141
g141
S'237'
p1054
S'38'
p1055
tp1056
as(g93
I13
tp1057
(lp1058
(g147
I13
tp1059
a(S'read_dep_o'
p1060
S'token'
p1061
S'72'
p1062
S'49'
p1063
tp1064
as(g110
I19
tp1065
(lp1066
(S'valid_inflight_dn'
p1067
S'token'
p1068
S'146'
p1069
S'24'
p1070
tp1071
as(g56
I4
tp1072
(lp1073
(g51
I43
tp1074
a(g56
I3
tp1075
as(g1
I40
tp1076
(lp1077
(S'valid_req'
p1078
S'token'
p1079
S'120'
p1080
S'37'
p1081
tp1082
as(g256
I25
tp1083
(lp1084
(g256
I24
tp1085
a(g184
I31
tp1086
as(g184
I18
tp1087
(lp1088
(g110
I20
tp1089
a(g136
g136
S'147'
p1090
S'28'
p1091
tp1092
a(g1
I81
tp1093
a(g141
g141
S'147'
p1094
S'38'
p1095
tp1096
as(g256
I11
tp1097
(lp1098
(g256
I10
tp1099
a(g184
I14
tp1100
as(g1
I50
tp1101
(lp1102
(S'apu_master_valid_i'
p1103
S'token'
p1104
S'121'
p1105
S'64'
p1106
tp1107
as(g202
I20
tp1108
(lp1109
(S'write_deps_waiting'
p1110
S'token'
p1111
S'104'
p1112
S'68'
p1113
tp1114
as(g215
I1
tp1115
(lp1116
(g218
I1
tp1117
a(g36
I10
tp1118
a(g202
I3
tp1119
a(g141
g141
S'92'
p1120
S'59'
p1121
tp1122
as(g218
I4
tp1123
(lp1124
(g154
I26
tp1125
as(g1
I55
tp1126
(lp1127
(g1
I52
tp1128
a(g12
g12
S'121'
p1129
S'67'
p1130
tp1131
a(g1
I54
tp1132
as(g1
I20
tp1133
(lp1134
(g197
S'number'
p1135
S'92'
p1136
S'11'
p1137
tp1138
as(g56
I17
tp1139
(lp1140
(g51
I30
tp1141
a(g56
I16
tp1142
as(g1
I131
tp1143
(lp1144
(g1
I128
tp1145
a(g12
g12
S'193'
p1146
S'71'
p1147
tp1148
a(g1
I130
tp1149
as(g51
I21
tp1150
(lp1151
(g224
I2
tp1152
as(g1
I187
tp1153
(lp1154
(g295
g295
S'209'
p1155
S'30'
p1156
tp1157
a(g1
I186
tp1158
as(g1
I126
tp1159
(lp1160
(S'addr_inflight'
p1161
S'token'
p1162
S'193'
p1163
S'68'
p1164
tp1165
as(g1
I229
tp1166
(lp1167
(g1
I227
tp1168
a(g12
g12
S'225'
p1169
S'37'
p1170
tp1171
a(g1
I228
tp1172
as(g90
I8
tp1173
(lp1174
(g90
I7
tp1175
a(g210
g210
S'60'
p1176
S'56'
p1177
tp1178
a(g93
I8
tp1179
as(g256
I6
tp1180
(lp1181
(g256
I5
tp1182
a(g184
I7
tp1183
as(g1
I64
tp1184
(lp1185
(S"1'b0"
p1186
S'bin'
p1187
S'127'
p1188
S'26'
p1189
tp1190
as(g110
I48
tp1191
(lp1192
(S'read_dep_o'
p1193
S'token'
p1194
S'214'
p1195
S'18'
p1196
tp1197
as(g1
I207
tp1198
(lp1199
(S'write_deps_waiting'
p1200
S'token'
p1201
S'212'
p1202
S'48'
p1203
tp1204
as(g54
I20
tp1205
(lp1206
(S'assign'
p1207
S'assign'
p1208
S'214'
p1209
g108
tp1210
a(g110
I48
tp1211
a(g136
g136
S'214'
p1212
S'28'
p1213
tp1214
a(g1
I218
tp1215
a(g141
g141
S'214'
p1216
S'83'
p1217
tp1218
as(g51
I13
tp1219
(lp1220
(g215
I13
tp1221
as(g90
I18
tp1222
(lp1223
(g90
I17
tp1224
a(g210
g210
S'79'
p1225
S'51'
p1226
tp1227
a(g93
I18
tp1228
as(g184
I51
tp1229
(lp1230
(g110
I58
tp1231
a(g136
g136
S'245'
p1232
S'18'
p1233
tp1234
a(g1
I267
tp1235
a(g141
g141
S'245'
p1236
S'33'
p1237
tp1238
as(g102
I22
tp1239
(lp1240
(S'input'
p1241
S'input'
p1242
S'88'
p1243
g174
tp1244
as(g110
I26
tp1245
(lp1246
(S'valid_waiting_dn'
p1247
S'token'
p1248
S'159'
p1249
S'23'
p1250
tp1251
as(g147
I7
tp1252
(lp1253
(g102
I7
tp1254
a(g154
I7
tp1255
as(g579
I8
tp1256
(lp1257
(g398
I10
tp1258
as(g54
I14
tp1259
(lp1260
(S'assign'
p1261
S'assign'
p1262
S'207'
p1263
g108
tp1264
a(g110
I42
tp1265
a(g136
g136
S'207'
p1266
S'28'
p1267
tp1268
a(g1
I178
tp1269
a(g141
g141
S'207'
p1270
S'83'
p1271
tp1272
as(g1
I261
tp1273
(lp1274
(S'valid_req'
p1275
S'token'
p1276
S'232'
p1277
S'41'
p1278
tp1279
as(g56
I42
tp1280
(lp1281
(g51
I5
tp1282
a(g56
I41
tp1283
as(g184
I21
tp1284
(lp1285
(S'begin'
p1286
S'begin'
p1287
S'148'
p1288
S'55'
p1289
tp1290
a(g256
I17
tp1291
a(S'end'
p1292
S'end'
p1293
S'151'
p1294
S'10'
p1295
tp1296
as(g1
I59
tp1297
(lp1298
(g1
I56
tp1299
a(g12
g12
S'122'
p1300
S'44'
p1301
tp1302
a(g1
I58
tp1303
as(g202
I31
tp1304
(lp1305
(S'stall_full'
p1306
S'token'
p1307
S'108'
p1308
S'17'
p1309
tp1310
a(g210
g210
S'108'
p1311
S'18'
p1312
tp1313
a(g202
I30
tp1314
as(g154
I25
tp1315
(lp1316
(S'logic'
p1317
S'logic'
p1318
S'94'
p1319
g174
tp1320
as(g398
I8
tp1321
(lp1322
(g54
I13
tp1323
as(g1
I162
tp1324
(lp1325
(g1
I159
tp1326
a(g12
g12
S'201'
p1327
S'73'
p1328
tp1329
a(g1
I161
tp1330
as(g256
I17
tp1331
(lp1332
(g256
I16
tp1333
a(g184
I20
tp1334
as(g184
I15
tp1335
(lp1336
(g110
I17
tp1337
a(g136
g136
S'142'
p1338
S'28'
p1339
tp1340
a(g1
I74
tp1341
a(g141
g141
S'142'
p1342
S'43'
p1343
tp1344
as(g1
I29
tp1345
(lp1346
(S'enable_i'
p1347
S'token'
p1348
S'111'
p1349
S'31'
p1350
tp1351
as(g202
I1
tp1352
(lp1353
(S'addr_waiting'
p1354
S'token'
p1355
S'92'
p1356
S'58'
p1357
tp1358
as(g771
I2
tp1359
(lp1360
(g771
I1
tp1361
a(S'Or_coma'
p1362
I1
tp1363
a(g783
I2
tp1364
as(g51
I26
tp1365
(lp1366
(g54
I14
tp1367
as(g693
I1
tp1368
(lp1369
(g696
I1
tp1370
as(g147
I10
tp1371
(lp1372
(g102
I10
tp1373
a(g154
I10
tp1374
as(g1
I177
tp1375
(lp1376
(g74
g74
S'207'
p1377
S'70'
p1378
tp1379
a(g1
I176
tp1380
as(g17
I4
tp1381
(lp1382
(g20
g20
S'193'
p1383
S'31'
p1384
tp1385
a(g1
I123
tp1386
a(g25
g25
S'193'
p1387
S'33'
p1388
tp1389
as(g1
I238
tp1390
(lp1391
(S'apu_lat'
p1392
S'token'
p1393
S'225'
p1394
S'97'
p1395
tp1396
as(g218
I7
tp1397
(lp1398
(g154
I29
tp1399
as(g51
I32
tp1400
(lp1401
(g54
I20
tp1402
as(g1
I73
tp1403
(lp1404
(S'valid_waiting'
p1405
S'token'
p1406
S'141'
p1407
S'42'
p1408
tp1409
as(g154
I4
tp1410
(lp1411
(S'logic'
p1412
S'logic'
p1413
S'55'
p1414
S'12'
p1415
tp1416
as(g110
I59
tp1417
(lp1418
(S'apu_waddr_o'
p1419
S'token'
p1420
S'247'
p1421
S'16'
p1422
tp1423
as(g1
I240
tp1424
(lp1425
(g1
I238
tp1426
a(S'=='
p1427
S'eq_eq'
p1428
S'225'
p1429
S'99'
p1430
tp1431
a(g1
I239
tp1432
as(g93
I19
tp1433
(lp1434
(g147
I19
tp1435
a(S'apu_master_req_o'
p1436
S'token'
p1437
S'84'
p1438
S'55'
p1439
tp1440
as(g147
I20
tp1441
(lp1442
(g102
I20
tp1443
a(g154
I20
tp1444
as(g1
I83
tp1445
(lp1446
(S'returned_inflight'
p1447
S'token'
p1448
S'148'
p1449
S'47'
p1450
tp1451
as(g102
I13
tp1452
(lp1453
(S'output'
p1454
S'output'
p1455
S'72'
p1456
g108
tp1457
as(g110
I29
tp1458
(lp1459
(S'valid_waiting_dn'
p1460
S'token'
p1461
S'164'
p1462
S'23'
p1463
tp1464
as(g1
I218
tp1465
(lp1466
(g1
I216
tp1467
a(g295
g295
S'214'
p1468
S'65'
p1469
tp1470
a(g1
I217
tp1471
as(g579
I1
tp1472
(lp1473
(g398
I1
tp1474
as(g93
I20
tp1475
(lp1476
(g147
I20
tp1477
a(S'apu_master_ready_o'
p1478
S'token'
p1479
S'85'
p1480
S'57'
p1481
tp1482
as(g1
I270
tp1483
(lp1484
(S'active'
p1485
S'token'
p1486
S'251'
p1487
S'25'
p1488
tp1489
as(g256
I34
tp1490
(lp1491
(g256
I33
tp1492
a(g184
I50
tp1493
as(g184
I44
tp1494
(lp1495
(S'if'
p1496
S'if'
p1497
S'180'
p1498
g108
tp1499
a(g63
g63
S'180'
p1500
g495
tp1501
a(g1
I108
tp1502
a(g68
g68
S'180'
p1503
S'18'
p1504
tp1505
a(g184
I43
tp1506
as(g110
I7
tp1507
(lp1508
(S'valid_inflight'
p1509
S'token'
p1510
S'127'
p1511
S'19'
p1512
tp1513
as(g56
I2
tp1514
(lp1515
(g51
I45
tp1516
a(g56
I1
tp1517
as(g154
I1
tp1518
(lp1519
(S'logic'
p1520
S'logic'
p1521
S'50'
p1522
S'12'
p1523
tp1524
as(g398
I1
tp1525
(lp1526
(g54
I8
tp1527
as(g1
I272
tp1528
(lp1529
(S'stall_nack'
p1530
S'token'
p1531
S'255'
p1532
S'32'
p1533
tp1534
as(g1
I171
tp1535
(lp1536
(g1
I168
tp1537
a(g12
g12
S'202'
p1538
S'73'
p1539
tp1540
a(g1
I170
tp1541
as(g184
I6
tp1542
(lp1543
(g110
I11
tp1544
a(S'<='
p1545
S'sm_eq'
p1546
S'132'
p1547
S'24'
p1548
tp1549
a(g1
I68
tp1550
a(g141
g141
S'132'
p1551
S'43'
p1552
tp1553
as(g1
I14
tp1554
(lp1555
(g197
S'number'
p1556
S'74'
p1557
S'18'
p1558
tp1559
as(g1
I6
tp1560
(lp1561
(g197
S'number'
p1562
S'59'
p1563
S'18'
p1564
tp1565
as(g202
I8
tp1566
(lp1567
(S'valid_req'
p1568
S'token'
p1569
S'94'
p1570
S'30'
p1571
tp1572
a(g210
g210
S'94'
p1573
S'31'
p1574
tp1575
a(g202
I7
tp1576
as(g1
I141
tp1577
(lp1578
(g197
S'number'
p1579
S'199'
p1580
S'20'
p1581
tp1582
as(g51
I3
tp1583
(lp1584
(g215
I3
tp1585
as(g1
I104
tp1586
(lp1587
(S'rst_ni'
p1588
S'token'
p1589
S'176'
p1590
S'44'
p1591
tp1592
as(g17
I13
tp1593
(lp1594
(g20
g20
S'201'
p1595
S'32'
p1596
tp1597
a(g1
I154
tp1598
a(g25
g25
S'201'
p1599
S'34'
p1600
tp1601
as(g1
I151
tp1602
(lp1603
(g263
S'token'
p1604
S'200'
p1605
S'94'
p1606
tp1607
as(g36
I2
tp1608
(lp1609
(g20
g20
S'56'
p1610
S'14'
p1611
tp1612
a(g1
I3
tp1613
a(g43
g43
S'56'
p1614
S'16'
p1615
tp1616
a(g1
I4
tp1617
a(g25
g25
S'56'
p1618
S'18'
p1619
tp1620
as(g51
I41
tp1621
(lp1622
(g54
I28
tp1623
as(g1
I181
tp1624
(lp1625
(S'valid_inflight'
p1626
S'token'
p1627
S'208'
p1628
S'66'
p1629
tp1630
as(g1
I114
tp1631
(lp1632
(g263
S'token'
p1633
S'192'
p1634
S'27'
p1635
tp1636
as(g1
I249
tp1637
(lp1638
(g1
I244
tp1639
a(g295
g295
S'225'
p1640
S'107'
p1641
tp1642
a(g1
I248
tp1643
as(g1
I209
tp1644
(lp1645
(S'valid_waiting'
p1646
S'token'
p1647
S'212'
p1648
S'65'
p1649
tp1650
as(g90
I4
tp1651
(lp1652
(g90
I3
tp1653
a(g210
g210
S'54'
p1654
S'48'
p1655
tp1656
a(g93
I4
tp1657
as(g256
I4
tp1658
(lp1659
(g256
I3
tp1660
a(g184
I4
tp1661
as(g783
I4
tp1662
(lp1663
(S'negedge'
p1664
S'negedge'
p1665
S'176'
p1666
S'37'
p1667
tp1668
a(g1
I104
tp1669
as(g1
I84
tp1670
(lp1671
(g63
g63
S'148'
p1672
S'30'
p1673
tp1674
a(g1
I83
tp1675
a(g68
g68
S'148'
p1676
S'48'
p1677
tp1678
as(g102
I4
tp1679
(lp1680
(S'input'
p1681
S'input'
p1682
S'55'
p1683
g174
tp1684
as(g110
I36
tp1685
(lp1686
(S'read_deps_inflight'
p1687
S'token'
p1688
S'193'
p1689
S'30'
p1690
tp1691
a(g17
I4
tp1692
as(g1
I195
tp1693
(lp1694
(S'valid_req'
p1695
S'token'
p1696
S'210'
p1697
S'61'
p1698
tp1699
as(g184
I55
tp1700
(lp1701
(S'begin'
p1702
S'begin'
p1703
S'240'
p1704
S'18'
p1705
tp1706
a(g256
I36
tp1707
a(S'end'
p1708
S'end'
p1709
S'248'
p1710
S'4'
p1711
tp1712
as(g184
I39
tp1713
(lp1714
(S'begin'
p1715
S'begin'
p1716
S'139'
p1717
S'18'
p1718
tp1719
a(g256
I28
tp1720
a(S'end'
p1721
S'end'
p1722
S'167'
p1723
g1711
tp1724
as(g110
I14
tp1725
(lp1726
(S'addr_waiting'
p1727
S'token'
p1728
S'135'
p1729
S'18'
p1730
tp1731
as(g90
I10
tp1732
(lp1733
(g90
I9
tp1734
a(g210
g210
S'64'
p1735
S'48'
p1736
tp1737
a(g93
I10
tp1738
as(g1
I281
tp1739
(lp1740
(g707
g707
S'258'
p1741
S'29'
p1742
tp1743
a(g1
I280
tp1744
as(g1
I172
tp1745
(lp1746
(S'read_deps_req'
p1747
S'token'
p1748
S'207'
p1749
S'43'
p1750
tp1751
as(g56
I40
tp1752
(lp1753
(g51
I7
tp1754
a(g56
I39
tp1755
as(g184
I25
tp1756
(lp1757
(S'begin'
p1758
S'begin'
p1759
S'152'
p1760
S'34'
p1761
tp1762
a(g256
I20
tp1763
a(S'end'
p1764
S'end'
p1765
S'155'
p1766
S'10'
p1767
tp1768
as(g1
I15
tp1769
(lp1770
(g547
S'number'
p1771
S'74'
p1772
S'21'
p1773
tp1774
as(g202
I19
tp1775
(lp1776
(S'read_deps_req'
p1777
S'token'
p1778
S'103'
p1779
S'26'
p1780
tp1781
a(g210
g210
S'103'
p1782
S'27'
p1783
tp1784
a(g202
I18
tp1785
as(g154
I27
tp1786
(lp1787
(S'logic'
p1788
S'logic'
p1789
S'96'
p1790
g174
tp1791
as(g1
I182
tp1792
(lp1793
(g1
I180
tp1794
a(g12
g12
S'208'
p1795
S'51'
p1796
tp1797
a(g1
I181
tp1798
as(g256
I23
tp1799
(lp1800
(g256
I22
tp1801
a(g184
I29
tp1802
as(g218
I3
tp1803
(lp1804
(g154
I25
tp1805
as(g1
I17
tp1806
(lp1807
(S'1'
p1808
S'number'
p1809
S'75'
p1810
S'16'
p1811
tp1812
as(g1
I152
tp1813
(lp1814
(S'write_regs_valid_i'
p1815
S'token'
p1816
S'200'
p1817
S'92'
p1818
tp1819
a(g17
I12
tp1820
as(g90
I7
tp1821
(lp1822
(g90
I6
tp1823
a(g210
g210
S'59'
p1824
S'51'
p1825
tp1826
a(g93
I7
tp1827
as(g401
I1
tp1828
(lp1829
(S'for'
p1830
S'for'
p1831
S'191'
p1832
g174
tp1833
a(g63
g63
S'191'
p1834
g495
tp1835
a(g693
I1
tp1836
a(g141
g141
S'191'
p1837
S'21'
p1838
tp1839
a(g1
I113
tp1840
a(g141
g141
S'191'
p1841
S'28'
p1842
tp1843
a(g693
I2
tp1844
a(g68
g68
S'191'
p1845
S'33'
p1846
tp1847
a(g398
I4
tp1848
as(g17
I16
tp1849
(lp1850
(g20
g20
S'202'
p1851
S'31'
p1852
tp1853
a(g1
I163
tp1854
a(g25
g25
S'202'
p1855
S'33'
p1856
tp1857
as(g56
I15
tp1858
(lp1859
(g51
I32
tp1860
a(g56
I14
tp1861
as(g1
I226
tp1862
(lp1863
(g1
I224
tp1864
a(g12
g12
S'221'
p1865
S'42'
p1866
tp1867
a(g1
I225
tp1868
as(g56
I19
tp1869
(lp1870
(g51
I28
tp1871
a(g56
I18
tp1872
as(g147
I2
tp1873
(lp1874
(g102
I2
tp1875
a(g154
I2
tp1876
as(g1
I93
tp1877
(lp1878
(S"'0"
p1879
S'udig'
p1880
S'158'
p1881
S'31'
p1882
tp1883
as(g154
I6
tp1884
(lp1885
(S'logic'
p1886
S'logic'
p1887
S'59'
p1888
S'13'
p1889
tp1890
as(g110
I47
tp1891
(lp1892
(S'write_dep_waiting'
p1893
S'token'
p1894
S'212'
p1895
S'25'
p1896
tp1897
as(g1
I196
tp1898
(lp1899
(g1
I194
tp1900
a(g12
g12
S'210'
p1901
S'51'
p1902
tp1903
a(g1
I195
tp1904
as(g54
I25
tp1905
(lp1906
(S'assign'
p1907
S'assign'
p1908
S'227'
p1909
g108
tp1910
a(g110
I53
tp1911
a(g136
g136
S'227'
p1912
S'25'
p1913
tp1914
a(g1
I260
tp1915
a(g141
g141
S'227'
p1916
S'63'
p1917
tp1918
as(g93
I15
tp1919
(lp1920
(g147
I15
tp1921
a(g36
I9
tp1922
a(S'write_regs_valid_i'
p1923
S'token'
p1924
S'75'
p1925
S'57'
p1926
tp1927
as(g102
I17
tp1928
(lp1929
(S'output'
p1930
S'output'
p1931
S'79'
p1932
g108
tp1933
as(g110
I17
tp1934
(lp1935
(S'addr_inflight_dn'
p1936
S'token'
p1937
S'142'
p1938
S'20'
p1939
tp1940
as(g1
I46
tp1941
(lp1942
(S'valid_waiting'
p1943
S'token'
p1944
S'120'
p1945
S'100'
p1946
tp1947
as(g1
I258
tp1948
(lp1949
(g1
I256
tp1950
a(g295
g295
S'227'
p1951
S'38'
p1952
tp1953
a(g1
I257
tp1954
as(g184
I16
tp1955
(lp1956
(g110
I18
tp1957
a(g136
g136
S'143'
p1958
S'28'
p1959
tp1960
a(g1
I75
tp1961
a(g141
g141
S'143'
p1962
S'42'
p1963
tp1964
as(g1
I48
tp1965
(lp1966
(g1
I45
tp1967
a(g12
g12
S'120'
p1968
S'85'
p1969
tp1970
a(g1
I47
tp1971
as(g202
I26
tp1972
(lp1973
(S'write_dep_waiting'
p1974
S'token'
p1975
S'106'
p1976
S'67'
p1977
tp1978
as(g215
I7
tp1979
(lp1980
(g218
I7
tp1981
a(g202
I15
tp1982
a(g141
g141
S'99'
p1983
S'28'
p1984
tp1985
as(g184
I40
tp1986
(lp1987
(g110
I32
tp1988
a(S'<='
p1989
S'sm_eq'
p1990
S'178'
p1991
S'18'
p1992
tp1993
a(g1
I107
tp1994
a(g141
g141
S'178'
p1995
S'22'
p1996
tp1997
as(g184
I10
tp1998
(lp1999
(S'begin'
p2000
S'begin'
p2001
S'131'
p2002
S'17'
p2003
tp2004
a(g256
I8
tp2005
a(S'end'
p2006
S'end'
p2007
S'136'
p2008
g174
tp2009
as(g256
I15
tp2010
(lp2011
(g256
I14
tp2012
a(g184
I18
tp2013
as(g1
I26
tp2014
(lp2015
(g197
S'number'
p2016
S'103'
p2017
S'11'
p2018
tp2019
as(g56
I22
tp2020
(lp2021
(g51
I25
tp2022
a(g56
I21
tp2023
as(g1
I129
tp2024
(lp2025
(g263
S'token'
p2026
S'193'
p2027
S'91'
p2028
tp2029
as(g51
I23
tp2030
(lp2031
(g224
I3
tp2032
as(g1
I124
tp2033
(lp2034
(g263
S'token'
p2035
S'193'
p2036
S'50'
p2037
tp2038
as(g1
I235
tp2039
(lp2040
(S"2'h2"
p2041
S'hex'
p2042
S'225'
p2043
S'82'
p2044
tp2045
as(g256
I14
tp2046
(lp2047
(g184
I17
tp2048
as(g56
I21
tp2049
(lp2050
(g51
I26
tp2051
a(g56
I20
tp2052
as(g1
I70
tp2053
(lp2054
(S'addr_inflight_dn'
p2055
S'token'
p2056
S'134'
p2057
S'41'
p2058
tp2059
as(g256
I27
tp2060
(lp2061
(g256
I26
tp2062
a(g184
I34
tp2063
as(g110
I54
tp2064
(lp2065
(S'apu_master_req_o'
p2066
S'token'
p2067
S'232'
p2068
S'24'
p2069
tp2070
as(g1
I205
tp2071
(lp2072
(g74
g74
S'211'
p2073
S'70'
p2074
tp2075
a(g1
I204
tp2076
as(g54
I18
tp2077
(lp2078
(S'assign'
p2079
S'assign'
p2080
S'211'
p2081
g108
tp2082
a(g110
I46
tp2083
a(g136
g136
S'211'
p2084
S'28'
p2085
tp2086
a(g1
I206
tp2087
a(g141
g141
S'211'
p2088
S'88'
p2089
tp2090
as(g93
I22
tp2091
(lp2092
(g147
I22
tp2093
a(S'apu_master_valid_i'
p2094
S'token'
p2095
S'88'
p2096
S'57'
p2097
tp2098
as(g90
I16
tp2099
(lp2100
(g90
I15
tp2101
a(g210
g210
S'75'
p2102
S'58'
p2103
tp2104
a(g93
I16
tp2105
as(g154
I32
tp2106
(lp2107
(S'logic'
p2108
S'logic'
p2109
S'104'
p2110
g174
tp2111
as(g184
I49
tp2112
(lp2113
(g110
I57
tp2114
a(g136
g136
S'243'
p2115
S'18'
p2116
tp2117
a(g1
I265
tp2118
a(g141
g141
S'243'
p2119
S'28'
p2120
tp2121
as(g102
I8
tp2122
(lp2123
(S'output'
p2124
S'output'
p2125
S'61'
p2126
g108
tp2127
as(g110
I24
tp2128
(lp2129
(S'addr_waiting_dn'
p2130
S'token'
p2131
S'154'
p2132
S'25'
p2133
tp2134
as(g1
I215
tp2135
(lp2136
(S'read_dep_inflight'
p2137
S'token'
p2138
S'214'
p2139
S'62'
p2140
tp2141
as(g579
I6
tp2142
(lp2143
(g579
I5
tp2144
a(g398
I7
tp2145
as(g54
I12
tp2146
(lp2147
(S'assign'
p2148
S'assign'
p2149
S'201'
p2150
S'11'
p2151
tp2152
a(g110
I40
tp2153
a(g136
g136
S'201'
p2154
S'36'
p2155
tp2156
a(g1
I162
tp2157
a(g141
g141
S'201'
p2158
S'96'
p2159
tp2160
as(g218
I2
tp2161
(lp2162
(g154
I24
tp2163
as(g465
I2
tp2164
(lp2165
(S'generate'
p2166
S'generate'
p2167
S'198'
p2168
S'9'
p2169
tp2170
a(g579
I8
tp2171
a(S'endgenerate'
p2172
S'endgenerate'
p2173
S'204'
p2174
S'12'
p2175
tp2176
as(g56
I27
tp2177
(lp2178
(g51
I20
tp2179
a(g56
I26
tp2180
as(g184
I43
tp2181
(lp2182
(S'begin'
p2183
S'begin'
p2184
S'180'
p2185
S'24'
p2186
tp2187
a(g256
I30
tp2188
a(S'end'
p2189
S'end'
p2190
S'182'
p2191
g495
tp2192
as(g110
I2
tp2193
(lp2194
(S'addr_req'
p2195
S'token'
p2196
S'112'
p2197
S'16'
p2198
tp2199
as(g1
I57
tp2200
(lp2201
(S'apu_master_valid_i'
p2202
S'token'
p2203
S'122'
p2204
S'64'
p2205
tp2206
as(g202
I29
tp2207
(lp2208
(S'stall_nack'
p2209
S'token'
p2210
S'108'
p2211
S'41'
p2212
tp2213
as(g398
I6
tp2214
(lp2215
(g54
I11
tp2216
as(g1
I160
tp2217
(lp2218
(g263
S'token'
p2219
S'201'
p2220
S'94'
p2221
tp2222
as(g1
I132
tp2223
(lp2224
(g263
S'token'
p2225
S'194'
p2226
S'31'
p2227
tp2228
as(g184
I13
tp2229
(lp2230
(g110
I15
tp2231
a(g136
g136
S'140'
p2232
S'28'
p2233
tp2234
a(g1
I72
tp2235
a(g141
g141
S'140'
p2236
S'44'
p2237
tp2238
as(g56
I37
tp2239
(lp2240
(g51
I10
tp2241
a(g56
I36
tp2242
as(g1
I3
tp2243
(lp2244
(g547
S'number'
p2245
S'56'
p2246
S'15'
p2247
tp2248
as(g202
I7
tp2249
(lp2250
(S'valid_inflight'
p2251
S'token'
p2252
S'94'
p2253
S'46'
p2254
tp2255
a(g210
g210
S'94'
p2256
S'47'
p2257
tp2258
a(g202
I6
tp2259
as(g154
I29
tp2260
(lp2261
(S'logic'
p2262
S'logic'
p2263
S'99'
p2264
g174
tp2265
as(g1
I138
tp2266
(lp2267
(g263
S'token'
p2268
S'194'
p2269
S'91'
p2270
tp2271
as(g256
I21
tp2272
(lp2273
(g256
I18
tp2274
a(g184
I26
tp2275
as(g51
I28
tp2276
(lp2277
(g54
I16
tp2278
as(g693
I3
tp2279
(lp2280
(g696
I3
tp2281
as(g1
I101
tp2282
(lp2283
(S'valid_waiting'
p2284
S'token'
p2285
S'173'
p2286
S'47'
p2287
tp2288
as(g17
I2
tp2289
(lp2290
(g20
g20
S'192'
p2291
S'49'
p2292
tp2293
a(g1
I115
tp2294
a(g25
g25
S'192'
p2295
S'51'
p2296
tp2297
as(g1362
I1
tp2298
(lp2299
(S'or'
p2300
S'or'
p2301
S'125'
p2302
S'29'
p2303
tp2304
as(g1
I236
tp2305
(lp2306
(g1
I234
tp2307
a(S'=='
p2308
S'eq_eq'
p2309
S'225'
p2310
S'81'
p2311
tp2312
a(g1
I235
tp2313
as(g51
I34
tp2314
(lp2315
(g54
I22
tp2316
as(g1
I79
tp2317
(lp2318
(g1
I76
tp2319
a(g12
g12
S'145'
p2320
S'22'
p2321
tp2322
a(g1
I78
tp2323
as(g110
I57
tp2324
(lp2325
(S'apu_waddr_o'
p2326
S'token'
p2327
S'243'
p2328
S'16'
p2329
tp2330
as(g56
I13
tp2331
(lp2332
(g51
I34
tp2333
a(g56
I12
tp2334
as(g1
I246
tp2335
(lp2336
(S"2'h3"
p2337
S'hex'
p2338
S'225'
p2339
S'121'
p2340
tp2341
as(g36
I9
tp2342
(lp2343
(g20
g20
S'75'
p2344
S'15'
p2345
tp2346
a(g1
I17
tp2347
a(g43
g43
S'75'
p2348
S'17'
p2349
tp2350
a(g1
I18
tp2351
a(g25
g25
S'75'
p2352
S'19'
p2353
tp2354
as(g147
I22
tp2355
(lp2356
(g102
I22
tp2357
a(g154
I22
tp2358
as(g783
I1
tp2359
(lp2360
(S'posedge'
p2361
S'posedge'
p2362
S'125'
p2363
S'20'
p2364
tp2365
a(g1
I60
tp2366
as(g1
I81
tp2367
(lp2368
(S'addr_req'
p2369
S'token'
p2370
S'147'
p2371
S'37'
p2372
tp2373
as(g102
I15
tp2374
(lp2375
(S'input'
p2376
S'input'
p2377
S'75'
p2378
g174
tp2379
as(g154
I8
tp2380
(lp2381
(S'logic'
p2382
S'logic'
p2383
S'61'
p2384
S'13'
p2385
tp2386
as(g110
I35
tp2387
(lp2388
(S'read_deps_req'
p2389
S'token'
p2390
S'192'
p2391
S'25'
p2392
tp2393
a(g17
I1
tp2394
as(g1
I216
tp2395
(lp2396
(g1
I214
tp2397
a(g295
g295
S'214'
p2398
S'44'
p2399
tp2400
a(g1
I215
tp2401
as(g1
I103
tp2402
(lp2403
(S'clk_i'
p2404
S'token'
p2405
S'176'
p2406
S'26'
p2407
tp2408
as(g54
I5
tp2409
(lp2410
(S'assign'
p2411
S'assign'
p2412
S'121'
p2413
g108
tp2414
a(g110
I5
tp2415
a(g136
g136
S'121'
p2416
S'27'
p2417
tp2418
a(g1
I55
tp2419
a(g141
g141
S'121'
p2420
S'83'
p2421
tp2422
as(g1
I268
tp2423
(lp2424
(S'returned_waiting'
p2425
S'token'
p2426
S'246'
p2427
S'22'
p2428
tp2429
as(g184
I34
tp2430
(lp2431
(g110
I30
tp2432
a(g136
g136
S'165'
p2433
S'28'
p2434
tp2435
a(g1
I99
tp2436
a(g141
g141
S'165'
p2437
S'32'
p2438
tp2439
as(g110
I5
tp2440
(lp2441
(S'returned_inflight'
p2442
S'token'
p2443
S'121'
p2444
S'25'
p2445
tp2446
as(g154
I31
tp2447
(lp2448
(S'logic'
p2449
S'logic'
p2450
S'103'
p2451
g174
tp2452
as(g256
I29
tp2453
(lp2454
(g184
I40
tp2455
as(g1
I278
tp2456
(lp2457
(S'valid_waiting'
p2458
S'token'
p2459
S'258'
p2460
S'60'
p2461
tp2462
as(g1
I169
tp2463
(lp2464
(g263
S'token'
p2465
S'202'
p2466
S'94'
p2467
tp2468
as(g184
I4
tp2469
(lp2470
(g110
I10
tp2471
a(S'<='
p2472
S'sm_eq'
p2473
S'130'
p2474
S'24'
p2475
tp2476
a(g1
I67
tp2477
a(g141
g141
S'130'
p2478
S'28'
p2479
tp2480
as(g1
I188
tp2481
(lp2482
(S'valid_waiting'
p2483
S'token'
p2484
S'209'
p2485
S'65'
p2486
tp2487
as(g1
I4
tp2488
(lp2489
(g197
S'number'
p2490
S'56'
p2491
S'17'
p2492
tp2493
as(g202
I14
tp2494
(lp2495
(S'req_accepted'
p2496
S'token'
p2497
S'98'
p2498
S'33'
p2499
tp2500
as(g215
I11
tp2501
(lp2502
(g218
I11
tp2503
a(g202
I25
tp2504
a(g141
g141
S'105'
p2505
S'67'
p2506
tp2507
as(g51
I5
tp2508
(lp2509
(g215
I5
tp2510
as(g256
I13
tp2511
(lp2512
(g256
I12
tp2513
a(g184
I16
tp2514
as(g1
I110
tp2515
(lp2516
(g197
S'number'
p2517
S'191'
p2518
S'20'
p2519
tp2520
as(g696
I2
tp2521
(lp2522
(g110
I34
tp2523
a(S'++'
p2524
S'plusplus'
p2525
S'191'
p2526
S'32'
p2527
tp2528
as(g17
I11
tp2529
(lp2530
(g20
g20
S'200'
p2531
S'51'
p2532
tp2533
a(g1
I146
tp2534
a(g25
g25
S'200'
p2535
S'53'
p2536
tp2537
as(g1
I149
tp2538
(lp2539
(g1
I147
tp2540
a(S'=='
p2541
S'eq_eq'
p2542
S'200'
p2543
S'56'
p2544
tp2545
a(g1
I148
tp2546
as(g51
I43
tp2547
(lp2548
(g54
I30
tp2549
as(g1
I112
tp2550
(lp2551
(S'3'
p2552
S'number'
p2553
S'191'
p2554
S'27'
p2555
tp2556
as(g110
I64
tp2557
(lp2558
(S'apu_singlecycle_o'
p2559
S'token'
p2560
S'258'
p2561
S'25'
p2562
tp2563
as(g1
I255
tp2564
(lp2565
(g1
I252
tp2566
a(g12
g12
S'226'
p2567
S'37'
p2568
tp2569
a(g1
I254
tp2570
as(g256
I33
tp2571
(lp2572
(g184
I48
tp2573
as(g90
I2
tp2574
(lp2575
(g90
I1
tp2576
a(g210
g210
S'50'
p2577
S'45'
p2578
tp2579
a(g93
I2
tp2580
as(g1
I125
tp2581
(lp2582
(S'read_regs_i'
p2583
S'token'
p2584
S'193'
p2585
S'48'
p2586
tp2587
a(g17
I5
tp2588
as(g1
I90
tp2589
(lp2590
(S"1'b1"
p2591
S'bin'
p2592
S'153'
p2593
S'30'
p2594
tp2595
as(g102
I6
tp2596
(lp2597
(S'output'
p2598
S'output'
p2599
S'59'
p2600
g108
tp2601
as(g110
I42
tp2602
(lp2603
(S'read_dep_req'
p2604
S'token'
p2605
S'207'
p2606
S'20'
p2607
tp2608
as(g1
I193
tp2609
(lp2610
(S'write_deps_req'
p2611
S'token'
p2612
S'210'
p2613
S'44'
p2614
tp2615
as(g154
I16
tp2616
(lp2617
(S'logic'
p2618
S'logic'
p2619
S'76'
p2620
S'13'
p2621
tp2622
as(g54
I30
tp2623
(lp2624
(S'assign'
p2625
S'assign'
p2626
S'255'
p2627
g108
tp2628
a(g110
I62
tp2629
a(g136
g136
S'255'
p2630
S'21'
p2631
tp2632
a(g1
I272
tp2633
a(g141
g141
S'255'
p2634
S'33'
p2635
tp2636
as(g93
I2
tp2637
(lp2638
(g147
I2
tp2639
a(S'rst_ni'
p2640
S'token'
p2641
S'51'
p2642
S'45'
p2643
tp2644
as(g154
I34
tp2645
(lp2646
(S'logic'
p2647
S'logic'
p2648
S'106'
p2649
g174
tp2650
as(g184
I37
tp2651
(lp2652
(S'if'
p2653
S'if'
p2654
S'157'
p2655
S'11'
p2656
tp2657
a(g63
g63
S'157'
p2658
S'13'
p2659
tp2660
a(g1
I92
tp2661
a(g68
g68
S'157'
p2662
S'31'
p2663
tp2664
a(g184
I32
tp2665
a(S'else'
p2666
S'else'
p2667
S'163'
p2668
g495
tp2669
a(g184
I36
tp2670
as(g110
I12
tp2671
(lp2672
(S'valid_waiting'
p2673
S'token'
p2674
S'133'
p2675
S'19'
p2676
tp2677
as(g1
I43
tp2678
(lp2679
(S'valid_inflight'
p2680
S'token'
p2681
S'120'
p2682
S'83'
p2683
tp2684
as(g51
I7
tp2685
(lp2686
(g215
I7
tp2687
as(g184
I31
tp2688
(lp2689
(g110
I28
tp2690
a(g136
g136
S'161'
p2691
S'28'
p2692
tp2693
a(g1
I96
tp2694
a(g141
g141
S'161'
p2695
S'32'
p2696
tp2697
as(g147
I4
tp2698
(lp2699
(g102
I4
tp2700
a(g154
I4
tp2701
as(g1
I257
tp2702
(lp2703
(S'stall_type'
p2704
S'token'
p2705
S'227'
p2706
S'49'
p2707
tp2708
as(g1
I13
tp2709
(lp2710
(g1808
S'number'
p2711
S'74'
p2712
S'16'
p2713
tp2714
as(g202
I17
tp2715
(lp2716
(S'read_deps_waiting'
p2717
S'token'
p2718
S'103'
p2719
S'67'
p2720
tp2721
as(g215
I12
tp2722
(lp2723
(g218
I12
tp2724
a(g202
I28
tp2725
a(g141
g141
S'106'
p2726
S'68'
p2727
tp2728
as(g224
I2
tp2729
(lp2730
(g176
I2
tp2731
a(g184
I39
tp2732
as(g56
I36
tp2733
(lp2734
(g51
I11
tp2735
a(g56
I35
tp2736
as(g218
I1
tp2737
(lp2738
(g154
I23
tp2739
as(g56
I30
tp2740
(lp2741
(g51
I17
tp2742
a(g56
I29
tp2743
as(g1
I23
tp2744
(lp2745
(g1808
S'number'
p2746
S'100'
p2747
g2169
tp2748
as(g1
I34
tp2749
(lp2750
(g74
g74
S'111'
p2751
S'35'
p2752
tp2753
a(g1
I33
tp2754
as(g1
I158
tp2755
(lp2756
(g1
I156
tp2757
a(S'=='
p2758
S'eq_eq'
p2759
S'201'
p2760
S'56'
p2761
tp2762
a(g1
I157
tp2763
as(g51
I16
tp2764
(lp2765
(g54
I3
tp2766
as(g1
I121
tp2767
(lp2768
(S'read_regs_valid_i'
p2769
S'token'
p2770
S'192'
p2771
S'89'
p2772
tp2773
a(g17
I3
tp2774
as(g1
I224
tp2775
(lp2776
(S'valid_inflight'
p2777
S'token'
p2778
S'221'
p2779
S'40'
p2780
tp2781
as(g90
I11
tp2782
(lp2783
(g90
I10
tp2784
a(g210
g210
S'67'
p2785
S'47'
p2786
tp2787
a(g93
I11
tp2788
as(g1
I67
tp2789
(lp2790
(S"'0"
p2791
S'udig'
p2792
S'130'
p2793
S'27'
p2794
tp2795
as(g110
I45
tp2796
(lp2797
(S'write_dep_req'
p2798
S'token'
p2799
S'210'
p2800
S'21'
p2801
tp2802
as(g56
I11
tp2803
(lp2804
(g51
I36
tp2805
a(g56
I10
tp2806
as(g1
I202
tp2807
(lp2808
(S'valid_inflight'
p2809
S'token'
p2810
S'211'
p2811
S'66'
p2812
tp2813
as(g54
I23
tp2814
(lp2815
(S'assign'
p2816
S'assign'
p2817
S'225'
p2818
g108
tp2819
a(g110
I51
tp2820
a(g136
g136
S'225'
p2821
S'25'
p2822
tp2823
a(g1
I251
tp2824
a(g141
g141
S'225'
p2825
S'127'
p2826
tp2827
as(g93
I9
tp2828
(lp2829
(g147
I9
tp2830
a(S'active_o'
p2831
S'token'
p2832
S'64'
p2833
S'47'
p2834
tp2835
as(g90
I21
tp2836
(lp2837
(g90
I20
tp2838
a(g210
g210
S'85'
p2839
S'58'
p2840
tp2841
a(g93
I21
tp2842
as(g102
I19
tp2843
(lp2844
(S'output'
p2845
S'output'
p2846
S'84'
p2847
g108
tp2848
as(g154
I10
tp2849
(lp2850
(S'logic'
p2851
S'logic'
p2852
S'67'
p2853
S'13'
p2854
tp2855
as(g110
I23
tp2856
(lp2857
(S'valid_waiting_dn'
p2858
S'token'
p2859
S'153'
p2860
S'26'
p2861
tp2862
as(g1
I44
tp2863
(lp2864
(g74
g74
S'120'
p2865
S'69'
p2866
tp2867
a(g1
I43
tp2868
as(g1
I256
tp2869
(lp2870
(S'stall_full'
p2871
S'token'
p2872
S'227'
p2873
S'36'
p2874
tp2875
as(g184
I22
tp2876
(lp2877
(S'if'
p2878
S'if'
p2879
S'148'
p2880
g2169
tp2881
a(g63
g63
S'148'
p2882
S'11'
p2883
tp2884
a(g1
I86
tp2885
a(g68
g68
S'148'
p2886
S'49'
p2887
tp2888
a(g184
I21
tp2889
as(g1
I54
tp2890
(lp2891
(g74
g74
S'121'
p2892
S'69'
p2893
tp2894
a(g1
I53
tp2895
as(g202
I24
tp2896
(lp2897
(S'read_dep_inflight'
p2898
S'token'
p2899
S'105'
p2900
S'46'
p2901
tp2902
a(g210
g210
S'105'
p2903
S'47'
p2904
tp2905
a(g202
I23
tp2906
as(g93
I14
tp2907
(lp2908
(g147
I14
tp2909
a(g36
I7
tp2910
a(g36
I8
tp2911
a(S'write_regs_i'
p2912
S'token'
p2913
S'74'
p2914
S'51'
p2915
tp2916
as(g215
I5
tp2917
(lp2918
(g218
I5
tp2919
a(g202
I13
tp2920
a(g141
g141
S'96'
p2921
S'71'
p2922
tp2923
as(g147
I14
tp2924
(lp2925
(g102
I14
tp2926
a(g154
I14
tp2927
as(g184
I8
tp2928
(lp2929
(g110
I13
tp2930
a(S'<='
p2931
S'sm_eq'
p2932
S'134'
p2933
S'24'
p2934
tp2935
a(g1
I70
tp2936
a(g141
g141
S'134'
p2937
S'42'
p2938
tp2939
as(g1
I190
tp2940
(lp2941
(S'returned_waiting'
p2942
S'token'
p2943
S'209'
p2944
S'86'
p2945
tp2946
as(g1
I24
tp2947
(lp2948
(g197
S'number'
p2949
S'100'
p2950
S'11'
p2951
tp2952
as(g202
I2
tp2953
(lp2954
(S'addr_inflight'
p2955
S'token'
p2956
S'92'
p2957
S'44'
p2958
tp2959
a(g210
g210
S'92'
p2960
S'45'
p2961
tp2962
a(g202
I1
tp2963
as(g771
I1
tp2964
(lp2965
(g783
I1
tp2966
as(g51
I25
tp2967
(lp2968
(g465
I2
tp2969
as(g256
I3
tp2970
(lp2971
(g256
I2
tp2972
a(g184
I3
tp2973
as(g1
I98
tp2974
(lp2975
(S"'0"
p2976
S'udig'
p2977
S'164'
p2978
S'31'
p2979
tp2980
as(g17
I7
tp2981
(lp2982
(g20
g20
S'194'
p2983
S'30'
p2984
tp2985
a(g1
I132
tp2986
a(g25
g25
S'194'
p2987
S'32'
p2988
tp2989
as(g1
I233
tp2990
(lp2991
(g63
g63
S'225'
p2992
S'49'
p2993
tp2994
a(g1
I232
tp2995
a(g68
g68
S'225'
p2996
S'65'
p2997
tp2998
as(g901
I1
tp2999
(lp3000
(S'module'
p3001
S'module'
p3002
S'49'
p3003
g547
tp3004
a(S'riscv_apu_disp'
p3005
S'token'
p3006
S'49'
p3007
S'20'
p3008
tp3009
a(g367
I1
tp3010
a(S'Header'
p3011
I1
tp3012
a(g56
I46
tp3013
a(S'endmodule'
p3014
S'endmodule'
p3015
S'265'
p3016
g495
tp3017
as(g54
I7
tp3018
(lp3019
(S'assign'
p3020
S'assign'
p3021
S'173'
p3022
g108
tp3023
a(g110
I31
tp3024
a(g136
g136
S'173'
p3025
S'16'
p3026
tp3027
a(g1
I102
tp3028
a(g141
g141
S'173'
p3029
S'48'
p3030
tp3031
as(g1
I68
tp3032
(lp3033
(S'valid_inflight_dn'
p3034
S'token'
p3035
S'132'
p3036
S'42'
p3037
tp3038
as(g110
I52
tp3039
(lp3040
(S'stall_nack'
p3041
S'token'
p3042
S'226'
p3043
S'18'
p3044
tp3045
as(g1
I243
tp3046
(lp3047
(g63
g63
S'225'
p3048
S'69'
p3049
tp3050
a(g1
I242
tp3051
a(g68
g68
S'225'
p3052
S'105'
p3053
tp3054
as(g54
I16
tp3055
(lp3056
(S'assign'
p3057
S'assign'
p3058
S'209'
p3059
g108
tp3060
a(g110
I44
tp3061
a(g136
g136
S'209'
p3062
S'28'
p3063
tp3064
a(g1
I192
tp3065
a(g141
g141
S'209'
p3066
S'87'
p3067
tp3068
as(g93
I16
tp3069
(lp3070
(g147
I16
tp3071
a(S'write_dep_o'
p3072
S'token'
p3073
S'76'
p3074
S'50'
p3075
tp3076
as(g147
I17
tp3077
(lp3078
(g102
I17
tp3079
a(g154
I17
tp3080
as(g1
I179
tp3081
(lp3082
(S'read_deps_inflight'
p3083
S'token'
p3084
S'208'
p3085
S'48'
p3086
tp3087
as(g1
I150
tp3088
(lp3089
(g63
g63
S'200'
p3090
S'38'
p3091
tp3092
a(g1
I149
tp3093
a(g68
g68
S'200'
p3094
S'66'
p3095
tp3096
as(g102
I10
tp3097
(lp3098
(S'output'
p3099
S'output'
p3100
S'67'
p3101
g108
tp3102
as(g110
I30
tp3103
(lp3104
(S'addr_waiting_dn'
p3105
S'token'
p3106
S'165'
p3107
S'22'
p3108
tp3109
as(g1
I213
tp3110
(lp3111
(g1
I210
tp3112
a(g12
g12
S'212'
p3113
S'68'
p3114
tp3115
a(g1
I212
tp3116
as(g579
I4
tp3117
(lp3118
(g398
I5
tp3119
as(g154
I18
tp3120
(lp3121
(S'logic'
p3122
S'logic'
p3123
S'80'
p3124
S'13'
p3125
tp3126
as(g54
I10
tp3127
(lp3128
(S'assign'
p3129
S'assign'
p3130
S'194'
p3131
S'11'
p3132
tp3133
a(g110
I37
tp3134
a(g136
g136
S'194'
p3135
S'35'
p3136
tp3137
a(g1
I140
tp3138
a(g141
g141
S'194'
p3139
S'93'
p3140
tp3141
as(g1
I265
tp3142
(lp3143
(S'addr_req'
p3144
S'token'
p3145
S'243'
p3146
S'27'
p3147
tp3148
as(g256
I30
tp3149
(lp3150
(g184
I42
tp3151
as(g184
I41
tp3152
(lp3153
(S'begin'
p3154
S'begin'
p3155
S'177'
p3156
S'20'
p3157
tp3158
a(g256
I29
tp3159
a(S'end'
p3160
S'end'
p3161
S'179'
p3162
g174
tp3163
as(g154
I2
tp3164
(lp3165
(S'logic'
p3166
S'logic'
p3167
S'51'
p3168
S'12'
p3169
tp3170
as(g398
I4
tp3171
(lp3172
(S'begin'
p3173
S'begin'
p3174
S'191'
p3175
S'39'
p3176
tp3177
a(g579
I3
tp3178
a(S'end'
p3179
S'end'
p3180
S'195'
p3181
g174
tp3182
as(g1
I275
tp3183
(lp3184
(g1
I273
tp3185
a(S'=='
p3186
S'eq_eq'
p3187
S'257'
p3188
S'40'
p3189
tp3190
a(g1
I274
tp3191
as(g1
I166
tp3192
(lp3193
(S'addr_waiting'
p3194
S'token'
p3195
S'202'
p3196
S'69'
p3197
tp3198
as(g184
I3
tp3199
(lp3200
(g110
I9
tp3201
a(S'<='
p3202
S'sm_eq'
p3203
S'129'
p3204
S'24'
p3205
tp3206
a(g1
I66
tp3207
a(g141
g141
S'129'
p3208
S'28'
p3209
tp3210
as(g1
I1
tp3211
(lp3212
(g1808
S'number'
p3213
S'55'
p3214
S'15'
p3215
tp3216
as(g202
I5
tp3217
(lp3218
(S'addr_inflight_dn'
p3219
S'token'
p3220
S'93'
p3221
S'37'
p3222
tp3223
a(g210
g210
S'93'
p3224
S'38'
p3225
tp3226
a(g202
I4
tp3227
as(g1
I136
tp3228
(lp3229
(g1
I134
tp3230
a(S'=='
p3231
S'eq_eq'
p3232
S'194'
p3233
S'54'
p3234
tp3235
a(g1
I135
tp3236
as(g56
I34
tp3237
(lp3238
(g51
I13
tp3239
a(g56
I33
tp3240
as(g51
I30
tp3241
(lp3242
(g54
I18
tp3243
as(g256
I26
tp3244
(lp3245
(g184
I33
tp3246
as(g1
I107
tp3247
(lp3248
(S"'0"
p3249
S'udig'
p3250
S'178'
p3251
S'21'
p3252
tp3253
as(g1
I60
tp3254
(lp3255
(S'clk_i'
p3256
S'token'
p3257
S'125'
p3258
S'26'
p3259
tp3260
as(g1
I146
tp3261
(lp3262
(g263
S'token'
p3263
S'200'
p3264
S'52'
p3265
tp3266
as(g36
I13
tp3267
(lp3268
(g20
g20
S'103'
p3269
g495
tp3270
a(g1
I25
tp3271
a(g43
g43
S'103'
p3272
S'10'
p3273
tp3274
a(g1
I26
tp3275
a(g25
g25
S'103'
p3276
S'12'
p3277
tp3278
as(g51
I36
tp3279
(lp3280
(g54
I24
tp3281
as(g1
I77
tp3282
(lp3283
(S'returned_req'
p3284
S'token'
p3285
S'145'
p3286
S'36'
p3287
tp3288
as(g110
I63
tp3289
(lp3290
(S'apu_multicycle_o'
p3291
S'token'
p3292
S'257'
p3293
S'24'
p3294
tp3295
as(g1
I244
tp3296
(lp3297
(g1
I233
tp3298
a(g295
g295
S'225'
p3299
S'67'
p3300
tp3301
a(g1
I243
tp3302
as(g147
I8
tp3303
(lp3304
(g102
I8
tp3305
a(g154
I8
tp3306
as(g783
I3
tp3307
(lp3308
(S'posedge'
p3309
S'posedge'
p3310
S'176'
p3311
S'20'
p3312
tp3313
a(g1
I103
tp3314
as(g1
I87
tp3315
(lp3316
(S"1'b1"
p3317
S'bin'
p3318
S'149'
p3319
S'30'
p3320
tp3321
as(g102
I1
tp3322
(lp3323
(S'input'
p3324
S'input'
p3325
S'50'
p3326
g174
tp3327
as(g110
I33
tp3328
(lp3329
(S'apu_lat'
p3330
S'token'
p3331
S'181'
p3332
S'14'
p3333
tp3334
as(g56
I9
tp3335
(lp3336
(g51
I38
tp3337
a(g56
I8
tp3338
as(g1
I222
tp3339
(lp3340
(S'write_dep_waiting'
p3341
S'token'
p3342
S'215'
p3343
S'83'
p3344
tp3345
as(g54
I3
tp3346
(lp3347
(S'assign'
p3348
S'assign'
p3349
S'114'
p3350
g108
tp3351
a(g110
I3
tp3352
a(g136
g136
S'114'
p3353
S'22'
p3354
tp3355
a(g1
I39
tp3356
a(g141
g141
S'114'
p3357
S'52'
p3358
tp3359
as(g93
I5
tp3360
(lp3361
(g147
I5
tp3362
a(g36
I2
tp3363
a(S'apu_waddr_i'
p3364
S'token'
p3365
S'56'
p3366
S'50'
p3367
tp3368
as(g184
I32
tp3369
(lp3370
(S'begin'
p3371
S'begin'
p3372
S'157'
p3373
S'37'
p3374
tp3375
a(g256
I25
tp3376
a(S'end'
p3377
S'end'
p3378
S'162'
p3379
g108
tp3380
as(g1
I49
tp3381
(lp3382
(S'valid_inflight'
p3383
S'token'
p3384
S'121'
p3385
S'42'
p3386
tp3387
as(g110
I11
tp3388
(lp3389
(S'valid_inflight'
p3390
S'token'
p3391
S'132'
p3392
S'20'
p3393
tp3394
as(g1
I32
tp3395
(lp3396
(g1
I30
tp3397
a(g295
g295
S'111'
p3398
S'48'
p3399
tp3400
a(g1
I31
tp3401
as(g1
I276
tp3402
(lp3403
(g63
g63
S'257'
p3404
S'30'
p3405
tp3406
a(g1
I275
tp3407
a(g68
g68
S'257'
p3408
S'46'
p3409
tp3410
as(g1
I175
tp3411
(lp3412
(g1
I173
tp3413
a(g12
g12
S'207'
p3414
S'51'
p3415
tp3416
a(g1
I174
tp3417
as(g184
I26
tp3418
(lp3419
(S'if'
p3420
S'if'
p3421
S'152'
p3422
g2169
tp3423
a(g63
g63
S'152'
p3424
S'11'
p3425
tp3426
a(g1
I89
tp3427
a(g68
g68
S'152'
p3428
S'28'
p3429
tp3430
a(g184
I25
tp3431
as(g1
I10
tp3432
(lp3433
(g197
S'number'
p3434
S'70'
p3435
S'23'
p3436
tp3437
as(g202
I12
tp3438
(lp3439
(S'returned_inflight'
p3440
S'token'
p3441
S'96'
p3442
S'52'
p3443
tp3444
a(g210
g210
S'96'
p3445
S'53'
p3446
tp3447
a(g202
I11
tp3448
as(S'Mains'
p3449
I1
tp3450
(lp3451
(g898
I1
tp3452
as(g215
I9
tp3453
(lp3454
(g218
I9
tp3455
a(g36
I13
tp3456
a(g202
I19
tp3457
a(g141
g141
S'103'
p3458
S'68'
p3459
tp3460
as(g56
I18
tp3461
(lp3462
(g51
I29
tp3463
a(g56
I17
tp3464
as(g218
I12
tp3465
(lp3466
(g154
I34
tp3467
as(g56
I26
tp3468
(lp3469
(g51
I21
tp3470
a(g56
I25
tp3471
as(g1
I108
tp3472
(lp3473
(S'valid_req'
p3474
S'token'
p3475
S'180'
p3476
S'17'
p3477
tp3478
as(g17
I9
tp3479
(lp3480
(g20
g20
S'194'
p3481
S'90'
p3482
tp3483
a(g1
I138
tp3484
a(g25
g25
S'194'
p3485
S'92'
p3486
tp3487
as(g1
I155
tp3488
(lp3489
(g263
S'token'
p3490
S'201'
p3491
S'52'
p3492
tp3493
as(g36
I6
tp3494
(lp3495
(g20
g20
S'71'
p3496
S'15'
p3497
tp3498
a(g1
I11
tp3499
a(g43
g43
S'71'
p3500
S'17'
p3501
tp3502
a(g1
I12
tp3503
a(g25
g25
S'71'
p3504
S'19'
p3505
tp3506
as(g56
I31
tp3507
(lp3508
(g51
I16
tp3509
a(g56
I30
tp3510
as(g51
I45
tp3511
(lp3512
(g54
I32
tp3513
as(g256
I1
tp3514
(lp3515
(g184
I1
tp3516
as(g147
I3
tp3517
(lp3518
(g102
I3
tp3519
a(g154
I3
tp3520
as(g1
I118
tp3521
(lp3522
(g1
I116
tp3523
a(S'=='
p3524
S'eq_eq'
p3525
S'192'
p3526
S'54'
p3527
tp3528
a(g1
I117
tp3529
as(g1
I253
tp3530
(lp3531
(S'apu_master_gnt_i'
p3532
S'token'
p3533
S'226'
p3534
S'55'
p3535
tp3536
as(g218
I5
tp3537
(lp3538
(g154
I27
tp3539
as(g147
I15
tp3540
(lp3541
(g102
I15
tp3542
a(g154
I15
tp3543
as(g1
I88
tp3544
(lp3545
(S'addr_inflight'
p3546
S'token'
p3547
S'150'
p3548
S'42'
p3549
tp3550
as(g110
I40
tp3551
(lp3552
(S'write_deps_inflight'
p3553
S'token'
p3554
S'201'
p3555
S'31'
p3556
tp3557
a(g17
I13
tp3558
as(g1
I199
tp3559
(lp3560
(g1
I196
tp3561
a(g12
g12
S'210'
p3562
S'68'
p3563
tp3564
a(g1
I198
tp3565
as(g54
I28
tp3566
(lp3567
(S'assign'
p3568
S'assign'
p3569
S'251'
p3570
g108
tp3571
a(g110
I60
tp3572
a(g136
g136
S'251'
p3573
S'18'
p3574
tp3575
a(g1
I270
tp3576
a(g141
g141
S'251'
p3577
S'26'
p3578
tp3579
as(g93
I12
tp3580
(lp3581
(g147
I12
tp3582
a(g36
I6
tp3583
a(S'read_regs_valid_i'
p3584
S'token'
p3585
S'71'
p3586
S'56'
p3587
tp3588
as(g110
I18
tp3589
(lp3590
(S'addr_waiting_dn'
p3591
S'token'
p3592
S'143'
p3593
S'19'
p3594
tp3595
as(g154
I20
tp3596
(lp3597
(S'logic'
p3598
S'logic'
p3599
S'85'
p3600
S'13'
p3601
tp3602
as(g1
I41
tp3603
(lp3604
(S'apu_master_valid_i'
p3605
S'token'
p3606
S'120'
p3607
S'64'
p3608
tp3609
as(g176
I2
tp3610
(lp3611
(S'always_comb'
p3612
S'always_comb'
p3613
S'139'
p3614
S'12'
p3615
tp3616
as(g256
I28
tp3617
(lp3618
(g256
I13
tp3619
a(g184
I38
tp3620
as(g184
I29
tp3621
(lp3622
(g110
I26
tp3623
a(g136
g136
S'159'
p3624
S'28'
p3625
tp3626
a(g1
I94
tp3627
a(g141
g141
S'159'
p3628
S'32'
p3629
tp3630
as(g154
I14
tp3631
(lp3632
(S'logic'
p3633
S'logic'
p3634
S'74'
p3635
S'13'
p3636
tp3637
as(g202
I23
tp3638
(lp3639
(S'read_dep_waiting'
p3640
S'token'
p3641
S'105'
p3642
S'66'
p3643
tp3644
as(g218
I8
tp3645
(lp3646
(g154
I30
tp3647
as(g215
I2
tp3648
(lp3649
(g218
I2
tp3650
a(g36
I11
tp3651
a(g202
I5
tp3652
a(g141
g141
S'93'
p3653
S'55'
p3654
tp3655
as(g51
I12
tp3656
(lp3657
(g215
I12
tp3658
as(g1
I21
tp3659
(lp3660
(g547
S'number'
p3661
S'93'
p3662
g2169
tp3663
as(g1
I156
tp3664
(lp3665
(S'write_regs_i'
p3666
S'token'
p3667
S'201'
p3668
S'50'
p3669
tp3670
a(g17
I14
tp3671
as(g256
I32
tp3672
(lp3673
(g184
I46
tp3674
as(g1
I130
tp3675
(lp3676
(S'read_regs_valid_i'
p3677
S'token'
p3678
S'193'
p3679
S'89'
p3680
tp3681
a(g17
I6
tp3682
as(g51
I18
tp3683
(lp3684
(g54
I5
tp3685
as(g1
I127
tp3686
(lp3687
(g1
I125
tp3688
a(S'=='
p3689
S'eq_eq'
p3690
S'193'
p3691
S'54'
p3692
tp3693
a(g1
I126
tp3694
as(g154
I3
tp3695
(lp3696
(S'logic'
p3697
S'logic'
p3698
S'54'
p3699
S'12'
p3700
tp3701
as(g1
I230
tp3702
(lp3703
(S'apu_lat_i'
p3704
S'token'
p3705
S'225'
p3706
S'58'
p3707
tp3708
as(g147
I6
tp3709
(lp3710
(g102
I6
tp3711
a(g154
I6
tp3712
as(g1
I65
tp3713
(lp3714
(S"1'b0"
p3715
S'bin'
p3716
S'128'
p3717
S'26'
p3718
tp3719
as(g110
I51
tp3720
(lp3721
(S'stall_type'
p3722
S'token'
p3723
S'225'
p3724
S'18'
p3725
tp3726
as(g1
I200
tp3727
(lp3728
(S'write_deps_inflight'
p3729
S'token'
p3730
S'211'
p3731
S'49'
p3732
tp3733
as(g54
I21
tp3734
(lp3735
(S'assign'
p3736
S'assign'
p3737
S'215'
p3738
g108
tp3739
a(g110
I49
tp3740
a(g136
g136
S'215'
p3741
S'28'
p3742
tp3743
a(g1
I223
tp3744
a(g141
g141
S'215'
p3745
S'84'
p3746
tp3747
as(g93
I11
tp3748
(lp3749
(g147
I11
tp3750
a(g36
I4
tp3751
a(g36
I5
tp3752
a(S'read_regs_i'
p3753
S'token'
p3754
S'70'
p3755
S'50'
p3756
tp3757
as(g90
I19
tp3758
(lp3759
(g90
I18
tp3760
a(g210
g210
S'80'
p3761
S'51'
p3762
tp3763
a(g93
I19
tp3764
as(g184
I50
tp3765
(lp3766
(S'if'
p3767
S'if'
p3768
S'242'
p3769
g547
tp3770
a(g63
g63
S'242'
p3771
g174
tp3772
a(g1
I264
tp3773
a(g68
g68
S'242'
p3774
S'19'
p3775
tp3776
a(g184
I49
tp3777
as(g102
I21
tp3778
(lp3779
(S'input'
p3780
S'input'
p3781
S'86'
p3782
g174
tp3783
as(g110
I21
tp3784
(lp3785
(S'valid_waiting_dn'
p3786
S'token'
p3787
S'149'
p3788
S'26'
p3789
tp3790
as(g56
I7
tp3791
(lp3792
(g51
I40
tp3793
a(g56
I6
tp3794
as(g1
I210
tp3795
(lp3796
(g1
I208
tp3797
a(g12
g12
S'212'
p3798
S'51'
p3799
tp3800
a(g1
I209
tp3801
as(g54
I15
tp3802
(lp3803
(S'assign'
p3804
S'assign'
p3805
S'208'
p3806
g108
tp3807
a(g110
I43
tp3808
a(g136
g136
S'208'
p3809
S'28'
p3810
tp3811
a(g1
I185
tp3812
a(g141
g141
S'208'
p3813
S'88'
p3814
tp3815
as(g1
I262
tp3816
(lp3817
(S"1'b1"
p3818
S'bin'
p3819
S'237'
p3820
S'34'
p3821
tp3822
as(g184
I20
tp3823
(lp3824
(g110
I22
tp3825
a(g136
g136
S'150'
p3826
S'28'
p3827
tp3828
a(g1
I88
tp3829
a(g141
g141
S'150'
p3830
S'43'
p3831
tp3832
as(g1
I51
tp3833
(lp3834
(g63
g63
S'121'
p3835
S'46'
p3836
tp3837
a(g1
I50
tp3838
a(g68
g68
S'121'
p3839
S'65'
p3840
tp3841
as(g1
I52
tp3842
(lp3843
(g1
I49
tp3844
a(g12
g12
S'121'
p3845
S'44'
p3846
tp3847
a(g1
I51
tp3848
as(g202
I30
tp3849
(lp3850
(S'stall_type'
p3851
S'token'
p3852
S'108'
p3853
S'29'
p3854
tp3855
a(g210
g210
S'108'
p3856
S'30'
p3857
tp3858
a(g202
I29
tp3859
as(g398
I9
tp3860
(lp3861
(S'begin'
p3862
S'begin'
p3863
S'199'
p3864
S'39'
p3865
tp3866
a(g579
I7
tp3867
a(S'end'
p3868
S'end'
p3869
S'203'
p3870
g174
tp3871
as(g1
I163
tp3872
(lp3873
(g263
S'token'
p3874
S'202'
p3875
S'32'
p3876
tp3877
as(g184
I14
tp3878
(lp3879
(g110
I16
tp3880
a(g136
g136
S'141'
p3881
S'28'
p3882
tp3883
a(g1
I73
tp3884
a(g141
g141
S'141'
p3885
S'43'
p3886
tp3887
as(g154
I35
tp3888
(lp3889
(S'logic'
p3890
S'logic'
p3891
S'108'
p3892
g174
tp3893
as(g771
I3
tp3894
(lp3895
(g783
I3
tp3896
as(g51
I27
tp3897
(lp3898
(g54
I15
tp3899
as(g1
I186
tp3900
(lp3901
(S'read_deps_waiting'
p3902
S'token'
p3903
S'209'
p3904
S'47'
p3905
tp3906
as(g1
I96
tp3907
(lp3908
(S"'0"
p3909
S'udig'
p3910
S'161'
p3911
S'31'
p3912
tp3913
as(g17
I5
tp3914
(lp3915
(g20
g20
S'193'
p3916
S'49'
p3917
tp3918
a(g1
I124
tp3919
a(g25
g25
S'193'
p3920
S'51'
p3921
tp3922
as(g1
I239
tp3923
(lp3924
(S"2'h3"
p3925
S'hex'
p3926
S'225'
p3927
S'100'
p3928
tp3929
as(g36
I10
tp3930
(lp3931
(g20
g20
S'92'
p3932
g495
tp3933
a(g1
I19
tp3934
a(g43
g43
S'92'
p3935
S'10'
p3936
tp3937
a(g1
I20
tp3938
a(g25
g25
S'92'
p3939
S'12'
p3940
tp3941
as(g51
I33
tp3942
(lp3943
(g54
I21
tp3944
as(g1
I74
tp3945
(lp3946
(S'addr_inflight'
p3947
S'token'
p3948
S'142'
p3949
S'42'
p3950
tp3951
as(g110
I58
tp3952
(lp3953
(S'apu_waddr_o'
p3954
S'token'
p3955
S'245'
p3956
S'16'
p3957
tp3958
as(g1
I241
tp3959
(lp3960
(g63
g63
S'225'
p3961
S'90'
p3962
tp3963
a(g1
I240
tp3964
a(g68
g68
S'225'
p3965
S'104'
p3966
tp3967
as(g93
I18
tp3968
(lp3969
(g147
I18
tp3970
a(S'perf_cont_o'
p3971
S'token'
p3972
S'80'
p3973
S'50'
p3974
tp3975
as(g147
I19
tp3976
(lp3977
(g102
I19
tp3978
a(g154
I19
tp3979
as(g184
I53
tp3980
(lp3981
(g110
I59
tp3982
a(g136
g136
S'247'
p3983
S'18'
p3984
tp3985
a(g1
I269
tp3986
a(g141
g141
S'247'
p3987
S'32'
p3988
tp3989
as(g102
I12
tp3990
(lp3991
(S'input'
p3992
S'input'
p3993
S'71'
p3994
g174
tp3995
as(g110
I28
tp3996
(lp3997
(S'addr_waiting_dn'
p3998
S'token'
p3999
S'161'
p4000
S'22'
p4001
tp4002
as(g1
I219
tp4003
(lp4004
(S'write_dep_req'
p4005
S'token'
p4006
S'215'
p4007
S'42'
p4008
tp4009
as(g579
I2
tp4010
(lp4011
(g579
I1
tp4012
a(g398
I2
tp4013
as(g54
I8
tp4014
(lp4015
(S'assign'
p4016
S'assign'
p4017
S'192'
p4018
S'11'
p4019
tp4020
a(g110
I35
tp4021
a(g136
g136
S'192'
p4022
S'35'
p4023
tp4024
a(g1
I122
tp4025
a(g141
g141
S'192'
p4026
S'93'
p4027
tp4028
as(g1
I271
tp4029
(lp4030
(S'stall_type'
p4031
S'token'
p4032
S'254'
p4033
S'32'
p4034
tp4035
as(g147
I13
tp4036
(lp4037
(g102
I13
tp4038
a(g154
I13
tp4039
as(g56
I45
tp4040
(lp4041
(g51
I2
tp4042
a(g56
I44
tp4043
as(g184
I47
tp4044
(lp4045
(S'begin'
p4046
S'begin'
p4047
S'176'
p4048
S'51'
p4049
tp4050
a(g256
I32
tp4051
a(S'end'
p4052
S'end'
p4053
S'184'
p4054
g1711
tp4055
as(g110
I6
tp4056
(lp4057
(S'returned_waiting'
p4058
S'token'
p4059
S'122'
p4060
S'24'
p4061
tp4062
as(g1
I61
tp4063
(lp4064
(S'rst_ni'
p4065
S'token'
p4066
S'125'
p4067
S'44'
p4068
tp4069
as(g154
I22
tp4070
(lp4071
(S'logic'
p4072
S'logic'
p4073
S'88'
p4074
S'12'
p4075
tp4076
as(g398
I2
tp4077
(lp4078
(g54
I9
tp4079
as(g1
I273
tp4080
(lp4081
(S'apu_lat'
p4082
S'token'
p4083
S'257'
p4084
S'37'
p4085
tp4086
as(g1
I164
tp4087
(lp4088
(g263
S'token'
p4089
S'202'
p4090
S'52'
p4091
tp4092
as(g256
I18
tp4093
(lp4094
(g256
I15
tp4095
a(g184
I22
tp4096
as(g184
I1
tp4097
(lp4098
(g110
I7
tp4099
a(S'<='
p4100
S'sm_eq'
p4101
S'127'
p4102
S'24'
p4103
tp4104
a(g1
I64
tp4105
a(g141
g141
S'127'
p4106
S'30'
p4107
tp4108
as(g1
I7
tp4109
(lp4110
(g685
S'number'
p4111
S'70'
p4112
S'16'
p4113
tp4114
as(g202
I11
tp4115
(lp4116
(S'returned_waiting'
p4117
S'token'
p4118
S'96'
p4119
S'70'
p4120
tp4121
as(g218
I10
tp4122
(lp4123
(g154
I32
tp4124
as(g1
I142
tp4125
(lp4126
(g263
S'token'
p4127
S'199'
p4128
S'23'
p4129
tp4130
as(g218
I11
tp4131
(lp4132
(g154
I33
tp4133
as(g147
I11
tp4134
(lp4135
(g102
I11
tp4136
a(g154
I11
tp4137
as(g696
I1
tp4138
(lp4139
(S'genvar'
p4140
S'genvar'
p4141
S'191'
p4142
S'14'
p4143
tp4144
a(g263
S'token'
p4145
S'191'
p4146
S'16'
p4147
tp4148
a(g136
g136
S'191'
p4149
S'18'
p4150
tp4151
a(g1
I110
tp4152
as(g17
I14
tp4153
(lp4154
(g20
g20
S'201'
p4155
S'51'
p4156
tp4157
a(g1
I155
tp4158
a(g25
g25
S'201'
p4159
S'53'
p4160
tp4161
as(g1
I144
tp4162
(lp4163
(g1
I142
tp4164
a(S'<'
p4165
g4165
S'199'
p4166
S'25'
p4167
tp4168
a(g1
I143
tp4169
as(g36
I3
tp4170
(lp4171
(g20
g20
S'59'
p4172
S'15'
p4173
tp4174
a(g1
I5
tp4175
a(g43
g43
S'59'
p4176
S'17'
p4177
tp4178
a(g1
I6
tp4179
a(g25
g25
S'59'
p4180
S'19'
p4181
tp4182
as(g51
I38
tp4183
(lp4184
(g54
I26
tp4185
as(g1
I115
tp4186
(lp4187
(g263
S'token'
p4188
S'192'
p4189
S'50'
p4190
tp4191
as(g1
I56
tp4192
(lp4193
(S'valid_waiting'
p4194
S'token'
p4195
S'122'
p4196
S'41'
p4197
tp4198
as(g110
I61
tp4199
(lp4200
(S'perf_type_o'
p4201
S'token'
p4202
S'254'
p4203
S'19'
p4204
tp4205
as(g1
I250
tp4206
(lp4207
(g63
g63
S'225'
p4208
S'48'
p4209
tp4210
a(g1
I249
tp4211
a(g68
g68
S'225'
p4212
S'126'
p4213
tp4214
as(g228
I2
tp4215
(lp4216
(g764
g764
S'176'
p4217
S'12'
p4218
tp4219
a(g63
g63
S'176'
p4220
S'13'
p4221
tp4222
a(g771
I4
tp4223
a(g68
g68
S'176'
p4224
S'45'
p4225
tp4226
as(g90
I5
tp4227
(lp4228
(g90
I4
tp4229
a(g210
g210
S'55'
p4230
S'49'
p4231
tp4232
a(g93
I5
tp4233
as(g1
I85
tp4234
(lp4235
(g74
g74
S'148'
p4236
S'29'
p4237
tp4238
a(g1
I84
tp4239
as(g102
I3
tp4240
(lp4241
(S'input'
p4242
S'input'
p4243
S'54'
p4244
g174
tp4245
as(g110
I39
tp4246
(lp4247
(S'write_deps_req'
p4248
S'token'
p4249
S'200'
p4250
S'26'
p4251
tp4252
a(g17
I10
tp4253
as(g1
I220
tp4254
(lp4255
(S'write_dep_inflight'
p4256
S'token'
p4257
S'215'
p4258
S'63'
p4259
tp4260
as(g54
I1
tp4261
(lp4262
(S'assign'
p4263
S'assign'
p4264
S'111'
p4265
g108
tp4266
a(g110
I1
tp4267
a(g136
g136
S'111'
p4268
S'22'
p4269
tp4270
a(g1
I35
tp4271
a(g141
g141
S'111'
p4272
S'61'
p4273
tp4274
as(g93
I7
tp4275
(lp4276
(g147
I7
tp4277
a(S'apu_multicycle_o'
p4278
S'token'
p4279
S'60'
p4280
S'55'
p4281
tp4282
as(g184
I38
tp4283
(lp4284
(S'if'
p4285
S'if'
p4286
S'145'
p4287
g174
tp4288
a(g63
g63
S'145'
p4289
g495
tp4290
a(g1
I79
tp4291
a(g68
g68
S'145'
p4292
S'37'
p4293
tp4294
a(g184
I27
tp4295
a(S'else'
p4296
S'else'
p4297
S'157'
p4298
g495
tp4299
a(g184
I37
tp4300
as(g110
I9
tp4301
(lp4302
(S'addr_inflight'
p4303
S'token'
p4304
S'129'
p4305
S'18'
p4306
tp4307
as(g56
I5
tp4308
(lp4309
(g51
I42
tp4310
a(g56
I4
tp4311
as(g1
I38
tp4312
(lp4313
(S'apu_master_gnt_i'
p4314
S'token'
p4315
S'114'
p4316
S'51'
p4317
tp4318
as(g1
I173
tp4319
(lp4320
(g295
g295
S'207'
p4321
S'30'
p4322
tp4323
a(g1
I172
tp4324
as(g184
I24
tp4325
(lp4326
(g110
I24
tp4327
a(g136
g136
S'154'
p4328
S'28'
p4329
tp4330
a(g1
I91
tp4331
a(g141
g141
S'154'
p4332
S'43'
p4333
tp4334
as(g256
I10
tp4335
(lp4336
(g184
I13
tp4337
as(g1
I8
tp4338
(lp4339
(g197
S'number'
p4340
S'70'
p4341
S'18'
p4342
tp4343
as(g202
I18
tp4344
(lp4345
(S'read_deps_inflight'
p4346
S'token'
p4347
S'103'
p4348
S'47'
p4349
tp4350
a(g210
g210
S'103'
p4351
S'48'
p4352
tp4353
a(g202
I17
tp4354
as(g1
I183
tp4355
(lp4356
(S'returned_inflight'
p4357
S'token'
p4358
S'208'
p4359
S'87'
p4360
tp4361
as(g51
I9
tp4362
(lp4363
(g215
I9
tp4364
as(g1
I18
tp4365
(lp4366
(g197
S'number'
p4367
S'75'
p4368
S'18'
p4369
tp4370
as(g1
I153
tp4371
(lp4372
(g1
I150
tp4373
a(g12
g12
S'200'
p4374
S'73'
p4375
tp4376
a(g1
I152
tp4377
as(g36
I4
tp4378
(lp4379
(g20
g20
S'70'
p4380
S'15'
p4381
tp4382
a(g1
I7
tp4383
a(g43
g43
S'70'
p4384
S'17'
p4385
tp4386
a(g1
I8
tp4387
a(g25
g25
S'70'
p4388
S'19'
p4389
tp4390
as(g56
I25
tp4391
(lp4392
(g51
I22
tp4393
a(g56
I24
tp4394
as(g1
I180
tp4395
(lp4396
(g295
g295
S'208'
p4397
S'30'
p4398
tp4399
a(g1
I179
tp4400
as(g1
I116
tp4401
(lp4402
(S'read_regs_i'
p4403
S'token'
p4404
S'192'
p4405
S'48'
p4406
tp4407
a(g17
I2
tp4408
as(g401
I2
tp4409
(lp4410
(S'for'
p4411
S'for'
p4412
S'199'
p4413
g174
tp4414
a(g63
g63
S'199'
p4415
g495
tp4416
a(g693
I3
tp4417
a(g141
g141
S'199'
p4418
S'21'
p4419
tp4420
a(g1
I144
tp4421
a(g141
g141
S'199'
p4422
S'28'
p4423
tp4424
a(g693
I4
tp4425
a(g68
g68
S'199'
p4426
S'33'
p4427
tp4428
a(g398
I9
tp4429
as(g17
I17
tp4430
(lp4431
(g20
g20
S'202'
p4432
S'51'
p4433
tp4434
a(g1
I164
tp4435
a(g25
g25
S'202'
p4436
S'53'
p4437
tp4438
as(g1
I227
tp4439
(lp4440
(S'enable_i'
p4441
S'token'
p4442
S'225'
p4443
S'34'
p4444
tp4445
as(g90
I14
tp4446
(lp4447
(g90
I13
tp4448
a(g210
g210
S'72'
p4449
S'50'
p4450
tp4451
a(g93
I14
tp4452
as(g256
I5
tp4453
(lp4454
(g184
I6
tp4455
as(g1
I94
tp4456
(lp4457
(S"'0"
p4458
S'udig'
p4459
S'159'
p4460
S'31'
p4461
tp4462
as(g110
I46
tp4463
(lp4464
(S'write_dep_inflight'
p4465
S'token'
p4466
S'211'
p4467
S'26'
p4468
tp4469
as(g1
I197
tp4470
(lp4471
(S'returned_req'
p4472
S'token'
p4473
S'210'
p4474
S'82'
p4475
tp4476
as(g54
I26
tp4477
(lp4478
(S'assign'
p4479
S'assign'
p4480
S'232'
p4481
g108
tp4482
a(g110
I54
tp4483
a(g136
g136
S'232'
p4484
S'31'
p4485
tp4486
a(g1
I261
tp4487
a(g141
g141
S'232'
p4488
S'42'
p4489
tp4490
as(g51
I10
tp4491
(lp4492
(g215
I10
tp4493
as(g102
I16
tp4494
(lp4495
(S'output'
p4496
S'output'
p4497
S'76'
p4498
g108
tp4499
as(g110
I16
tp4500
(lp4501
(S'valid_waiting_dn'
p4502
S'token'
p4503
S'141'
p4504
S'20'
p4505
tp4506
as(g1
I47
tp4507
(lp4508
(g74
g74
S'120'
p4509
S'87'
p4510
tp4511
a(g1
I46
tp4512
as(g1
I259
tp4513
(lp4514
(S'stall_nack'
p4515
S'token'
p4516
S'227'
p4517
S'62'
p4518
tp4519
as(g176
I4
tp4520
(lp4521
(S'always_comb'
p4522
S'always_comb'
p4523
S'240'
p4524
S'12'
p4525
tp4526
as(g56
I43
tp4527
(lp4528
(g51
I4
tp4529
a(g56
I42
tp4530
as(g184
I19
tp4531
(lp4532
(g110
I21
tp4533
a(g136
g136
S'149'
p4534
S'28'
p4535
tp4536
a(g1
I87
tp4537
a(g141
g141
S'149'
p4538
S'34'
p4539
tp4540
as(g154
I12
tp4541
(lp4542
(S'logic'
p4543
S'logic'
p4544
S'71'
p4545
S'13'
p4546
tp4547
as(g202
I21
tp4548
(lp4549
(S'write_deps_inflight'
p4550
S'token'
p4551
S'104'
p4552
S'48'
p4553
tp4554
a(g210
g210
S'104'
p4555
S'49'
p4556
tp4557
a(g202
I20
tp4558
as(g154
I24
tp4559
(lp4560
(S'logic'
p4561
S'logic'
p4562
S'93'
p4563
g174
tp4564
as(g1
I184
tp4565
(lp4566
(g74
g74
S'208'
p4567
S'70'
p4568
tp4569
a(g1
I183
tp4570
as(g256
I16
tp4571
(lp4572
(g184
I19
tp4573
as(g51
I14
tp4574
(lp4575
(g54
I1
tp4576
as(g1
I27
tp4577
(lp4578
(g1808
S'number'
p4579
S'104'
p4580
g2169
tp4581
as(g771
I4
tp4582
(lp4583
(g771
I3
tp4584
a(g1362
I2
tp4585
a(g783
I4
tp4586
as(g51
I20
tp4587
(lp4588
(g224
I1
tp4589
as(g90
I6
tp4590
(lp4591
(g90
I5
tp4592
a(g210
g210
S'56'
p4593
S'51'
p4594
tp4595
a(g93
I6
tp4596
as(g56
I14
tp4597
(lp4598
(g51
I33
tp4599
a(g56
I13
tp4600
as(g1
I228
tp4601
(lp4602
(S'active'
p4603
S'token'
p4604
S'225'
p4605
S'44'
p4606
tp4607
as(g1
I71
tp4608
(lp4609
(S'addr_waiting_dn'
p4610
S'token'
p4611
S'135'
p4612
S'40'
p4613
tp4614
as(g154
I7
tp4615
(lp4616
(S'logic'
p4617
S'logic'
p4618
S'60'
p4619
S'13'
p4620
tp4621
as(g110
I49
tp4622
(lp4623
(S'write_dep_o'
p4624
S'token'
p4625
S'215'
p4626
S'19'
p4627
tp4628
as(g1
I206
tp4629
(lp4630
(g1
I203
tp4631
a(g12
g12
S'211'
p4632
S'68'
p4633
tp4634
a(g1
I205
tp4635
as(g54
I19
tp4636
(lp4637
(S'assign'
p4638
S'assign'
p4639
S'212'
p4640
g108
tp4641
a(g110
I47
tp4642
a(g136
g136
S'212'
p4643
S'28'
p4644
tp4645
a(g1
I213
tp4646
a(g141
g141
S'212'
p4647
S'87'
p4648
tp4649
as(g93
I21
tp4650
(lp4651
(g147
I21
tp4652
a(S'apu_master_gnt_i'
p4653
S'token'
p4654
S'86'
p4655
S'55'
p4656
tp4657
as(g90
I17
tp4658
(lp4659
(g90
I16
tp4660
a(g210
g210
S'76'
p4661
S'51'
p4662
tp4663
a(g93
I17
tp4664
as(g184
I48
tp4665
(lp4666
(g110
I56
tp4667
a(g136
g136
S'241'
p4668
S'16'
p4669
tp4670
a(g1
I263
tp4671
a(g141
g141
S'241'
p4672
S'20'
p4673
tp4674
as(g110
I27
tp4675
(lp4676
(S'addr_inflight_dn'
p4677
S'token'
p4678
S'160'
p4679
S'23'
p4680
tp4681
as(g1
I208
tp4682
(lp4683
(g295
g295
S'212'
p4684
S'30'
p4685
tp4686
a(g1
I207
tp4687
as(g579
I7
tp4688
(lp4689
(g579
I6
tp4690
a(g398
I8
tp4691
as(g54
I13
tp4692
(lp4693
(S'assign'
p4694
S'assign'
p4695
S'202'
p4696
S'11'
p4697
tp4698
a(g110
I41
tp4699
a(g136
g136
S'202'
p4700
S'36'
p4701
tp4702
a(g1
I171
tp4703
a(g141
g141
S'202'
p4704
S'96'
p4705
tp4706
as(g1
I260
tp4707
(lp4708
(g1
I258
tp4709
a(g295
g295
S'227'
p4710
S'51'
p4711
tp4712
a(g1
I259
tp4713
as(g184
I42
tp4714
(lp4715
(g110
I33
tp4716
a(S'<='
p4717
S'sm_eq'
p4718
S'181'
p4719
S'18'
p4720
tp4721
a(g1
I109
tp4722
a(g141
g141
S'181'
p4723
S'29'
p4724
tp4725
as(g56
I3
tp4726
(lp4727
(g51
I44
tp4728
a(g56
I2
tp4729
as(g1
I58
tp4730
(lp4731
(g63
g63
S'122'
p4732
S'46'
p4733
tp4734
a(g1
I57
tp4735
a(g68
g68
S'122'
p4736
S'65'
p4737
tp4738
as(g202
I28
tp4739
(lp4740
(S'write_dep_req'
p4741
S'token'
p4742
S'106'
p4743
S'26'
p4744
tp4745
a(g210
g210
S'106'
p4746
S'27'
p4747
tp4748
a(g202
I27
tp4749
as(g398
I7
tp4750
(lp4751
(g54
I12
tp4752
as(g1
I161
tp4753
(lp4754
(S'write_regs_valid_i'
p4755
S'token'
p4756
S'201'
p4757
S'92'
p4758
tp4759
a(g17
I15
tp4760
as(g184
I12
tp4761
(lp4762
(S'begin'
p4763
S'begin'
p4764
S'125'
p4765
S'51'
p4766
tp4767
a(g256
I9
tp4768
a(S'end'
p4769
S'end'
p4770
S'137'
p4771
g1711
tp4772
as(g256
I8
tp4773
(lp4774
(g256
I7
tp4775
a(g184
I9
tp4776
as(g1
I28
tp4777
(lp4778
(g197
S'number'
p4779
S'104'
p4780
S'11'
p4781
tp4782
as(g202
I6
tp4783
(lp4784
(S'valid_waiting'
p4785
S'token'
p4786
S'94'
p4787
S'61'
p4788
tp4789
as(g1
I139
tp4790
(lp4791
(S'read_regs_valid_i'
p4792
S'token'
p4793
S'194'
p4794
S'89'
p4795
tp4796
a(g17
I9
tp4797
as(g51
I29
tp4798
(lp4799
(g54
I17
tp4800
as(g1
I102
tp4801
(lp4802
(g1
I100
tp4803
a(g295
g295
S'173'
p4804
S'33'
p4805
tp4806
a(g1
I101
tp4807
as(g17
I3
tp4808
(lp4809
(g20
g20
S'192'
p4810
S'90'
p4811
tp4812
a(g1
I120
tp4813
a(g25
g25
S'192'
p4814
S'92'
p4815
tp4816
as(g1362
I2
tp4817
(lp4818
(S'or'
p4819
S'or'
p4820
S'176'
p4821
S'29'
p4822
tp4823
as(g1
I237
tp4824
(lp4825
(g63
g63
S'225'
p4826
S'70'
p4827
tp4828
a(g1
I236
tp4829
a(g68
g68
S'225'
p4830
S'86'
p4831
tp4832
as(g36
I8
tp4833
(lp4834
(g20
g20
S'74'
p4835
S'20'
p4836
tp4837
a(g1
I15
tp4838
a(g43
g43
S'74'
p4839
S'22'
p4840
tp4841
a(g1
I16
tp4842
a(g25
g25
S'74'
p4843
S'24'
p4844
tp4845
as(g51
I35
tp4846
(lp4847
(g54
I23
tp4848
as(S'Main'
p4849
I1
tp4850
(lp4851
(g3449
I1
tp4852
as(g56
I20
tp4853
(lp4854
(g51
I27
tp4855
a(g56
I19
tp4856
as(g1
I72
tp4857
(lp4858
(S'valid_inflight'
p4859
S'token'
p4860
S'140'
p4861
S'43'
p4862
tp4863
as(g110
I56
tp4864
(lp4865
(S'apu_waddr_o'
p4866
S'token'
p4867
S'241'
p4868
S'14'
p4869
tp4870
as(g1
I247
tp4871
(lp4872
(g1
I245
tp4873
a(S'=='
p4874
S'eq_eq'
p4875
S'225'
p4876
S'120'
p4877
tp4878
a(g1
I246
tp4879
as(g147
I21
tp4880
(lp4881
(g102
I21
tp4882
a(g154
I21
tp4883
as(g154
I33
tp4884
(lp4885
(S'logic'
p4886
S'logic'
p4887
S'105'
p4888
g174
tp4889
as(g1
I82
tp4890
(lp4891
(S'valid_inflight'
p4892
S'token'
p4893
S'148'
p4894
S'25'
p4895
tp4896
as(g102
I14
tp4897
(lp4898
(S'input'
p4899
S'input'
p4900
S'74'
p4901
g174
tp4902
as(g110
I34
tp4903
(lp4904
(g263
S'token'
p4905
S'191'
p4906
S'30'
p4907
tp4908
as(g1
I217
tp4909
(lp4910
(S'read_dep_waiting'
p4911
S'token'
p4912
S'214'
p4913
S'82'
p4914
tp4915
as(g54
I6
tp4916
(lp4917
(S'assign'
p4918
S'assign'
p4919
S'122'
p4920
g108
tp4921
a(g110
I6
tp4922
a(g136
g136
S'122'
p4923
S'27'
p4924
tp4925
a(g1
I59
tp4926
a(g141
g141
S'122'
p4927
S'66'
p4928
tp4929
as(g51
I8
tp4930
(lp4931
(g215
I8
tp4932
as(g184
I45
tp4933
(lp4934
(S'begin'
p4935
S'begin'
p4936
S'179'
p4937
S'17'
p4938
tp4939
a(g256
I31
tp4940
a(S'end'
p4941
S'end'
p4942
S'183'
p4943
g174
tp4944
as(g56
I38
tp4945
(lp4946
(g51
I9
tp4947
a(g56
I37
tp4948
as(g110
I4
tp4949
(lp4950
(S'returned_req'
p4951
S'token'
p4952
S'120'
p4953
S'20'
p4954
tp4955
as(g154
I30
tp4956
(lp4957
(S'logic'
p4958
S'logic'
p4959
S'100'
p4960
g174
tp4961
as(g54
I32
tp4962
(lp4963
(S'assign'
p4964
S'assign'
p4965
S'258'
p4966
g108
tp4967
a(g110
I64
tp4968
a(g136
g136
S'258'
p4969
S'27'
p4970
tp4971
a(g1
I281
tp4972
a(g141
g141
S'258'
p4973
S'62'
p4974
tp4975
as(g1
I279
tp4976
(lp4977
(g1
I277
tp4978
a(g295
g295
S'258'
p4979
S'46'
p4980
tp4981
a(g1
I278
tp4982
as(g1
I170
tp4983
(lp4984
(S'write_regs_valid_i'
p4985
S'token'
p4986
S'202'
p4987
S'92'
p4988
tp4989
a(g17
I18
tp4990
as(g56
I24
tp4991
(lp4992
(g51
I23
tp4993
a(g56
I23
tp4994
as(g56
I41
tp4995
(lp4996
(g51
I6
tp4997
a(g56
I40
tp4998
as(g184
I7
tp4999
(lp5000
(g110
I12
tp5001
a(S'<='
p5002
S'sm_eq'
p5003
S'133'
p5004
S'24'
p5005
tp5006
a(g1
I69
tp5007
a(g141
g141
S'133'
p5008
S'42'
p5009
tp5010
as(g1
I5
tp5011
(lp5012
(g547
S'number'
p5013
S'59'
p5014
S'16'
p5015
tp5016
as(g202
I9
tp5017
(lp5018
(S'valid_waiting_dn'
p5019
S'token'
p5020
S'95'
p5021
S'56'
p5022
tp5023
as(g154
I26
tp5024
(lp5025
(S'logic'
p5026
S'logic'
p5027
S'95'
p5028
g174
tp5029
as(g1
I140
tp5030
(lp5031
(g1
I137
tp5032
a(g12
g12
S'194'
p5033
S'71'
p5034
tp5035
a(g1
I139
tp5036
as(g256
I22
tp5037
(lp5038
(g184
I28
tp5039
as(g218
I9
tp5040
(lp5041
(g154
I31
tp5042
as(g1
I111
tp5043
(lp5044
(g263
S'token'
p5045
S'191'
p5046
S'23'
p5047
tp5048
as(g696
I3
tp5049
(lp5050
(S'genvar'
p5051
S'genvar'
p5052
S'199'
p5053
S'14'
p5054
tp5055
a(g263
S'token'
p5056
S'199'
p5057
S'16'
p5058
tp5059
a(g136
g136
S'199'
p5060
S'18'
p5061
tp5062
a(g1
I141
tp5063
as(g17
I12
tp5064
(lp5065
(g20
g20
S'200'
p5066
S'93'
p5067
tp5068
a(g1
I151
tp5069
a(g25
g25
S'200'
p5070
S'95'
p5071
tp5072
as(g90
I9
tp5073
(lp5074
(g90
I8
tp5075
a(g210
g210
S'61'
p5076
S'57'
p5077
tp5078
a(g93
I9
tp5079
as(g36
I1
tp5080
(lp5081
(g20
g20
S'55'
p5082
S'14'
p5083
tp5084
a(g1
I1
tp5085
a(g43
g43
S'55'
p5086
S'16'
p5087
tp5088
a(g1
I2
tp5089
a(g25
g25
S'55'
p5090
S'18'
p5091
tp5092
as(g51
I40
tp5093
(lp5094
(g224
I4
tp5095
as(g1
I113
tp5096
(lp5097
(g1
I111
tp5098
a(g4165
g4165
S'191'
p5099
S'25'
p5100
tp5101
a(g1
I112
tp5102
as(g56
I12
tp5103
(lp5104
(g51
I35
tp5105
a(g56
I11
tp5106
as(g1
I248
tp5107
(lp5108
(g63
g63
S'225'
p5109
S'109'
p5110
tp5111
a(g1
I247
tp5112
a(g68
g68
S'225'
p5113
S'125'
p5114
tp5115
as(g147
I12
tp5116
(lp5117
(g102
I12
tp5118
a(g154
I12
tp5119
as(g1
I91
tp5120
(lp5121
(S'addr_inflight'
p5122
S'token'
p5123
S'154'
p5124
S'42'
p5125
tp5126
as(g102
I5
tp5127
(lp5128
(S'input'
p5129
S'input'
p5130
S'56'
p5131
g174
tp5132
as(g154
I9
tp5133
(lp5134
(S'logic'
p5135
S'logic'
p5136
S'64'
p5137
S'13'
p5138
tp5139
as(g110
I37
tp5140
(lp5141
(S'read_deps_waiting'
p5142
S'token'
p5143
S'194'
p5144
S'29'
p5145
tp5146
a(g17
I7
tp5147
as(g1
I194
tp5148
(lp5149
(g295
g295
S'210'
p5150
S'30'
p5151
tp5152
a(g1
I193
tp5153
as(g54
I31
tp5154
(lp5155
(S'assign'
p5156
S'assign'
p5157
S'257'
p5158
g108
tp5159
a(g110
I63
tp5160
a(g136
g136
S'257'
p5161
S'27'
p5162
tp5163
a(g1
I276
tp5164
a(g141
g141
S'257'
p5165
S'47'
p5166
tp5167
as(g93
I1
tp5168
(lp5169
(g147
I1
tp5170
a(S'clk_i'
p5171
S'token'
p5172
S'50'
p5173
S'44'
p5174
tp5175
as(g184
I36
tp5176
(lp5177
(S'if'
p5178
S'if'
p5179
S'163'
p5180
S'11'
p5181
tp5182
a(g63
g63
S'163'
p5183
S'13'
p5184
tp5185
a(g1
I97
tp5186
a(g68
g68
S'163'
p5187
S'30'
p5188
tp5189
a(g184
I35
tp5190
as(g110
I15
tp5191
(lp5192
(S'valid_inflight_dn'
p5193
S'token'
p5194
S'140'
p5195
S'21'
p5196
tp5197
as(g1
I36
tp5198
(lp5199
(S'apu_waddr_i'
p5200
S'token'
p5201
S'112'
p5202
S'34'
p5203
tp5204
as(g1
I280
tp5205
(lp5206
(g63
g63
S'258'
p5207
S'30'
p5208
tp5209
a(g1
I279
tp5210
a(g68
g68
S'258'
p5211
S'61'
p5212
tp5213
as(g176
I1
tp5214
(lp5215
(S'always_ff'
p5216
S'always_ff'
p5217
S'125'
p5218
S'10'
p5219
tp5220
as(g184
I30
tp5221
(lp5222
(g110
I27
tp5223
a(g136
g136
S'160'
p5224
S'28'
p5225
tp5226
a(g1
I95
tp5227
a(g141
g141
S'160'
p5228
S'32'
p5229
tp5230
as(g56
I1
tp5231
(lp5232
s(g256
I9
tp5233
(lp5234
(g184
I11
tp5235
as(g202
I16
tp5236
(lp5237
(S'apu_lat'
p5238
S'token'
p5239
S'100'
p5240
S'28'
p5241
tp5242
as(g215
I13
tp5243
(lp5244
(g218
I13
tp5245
a(g202
I31
tp5246
a(g141
g141
S'108'
p5247
S'42'
p5248
tp5249
as(g224
I3
tp5250
(lp5251
(g176
I3
tp5252
a(g228
I2
tp5253
a(g184
I47
tp5254
as(g51
I11
tp5255
(lp5256
(g215
I11
tp5257
as(g3011
I1
tp5258
(lp5259
(g63
g63
S'49'
p5260
S'22'
p5261
tp5262
a(g90
I22
tp5263
a(g68
g68
S'90'
p5264
g685
tp5265
a(g141
g141
S'90'
p5266
g2552
tp5267
as(g1
I16
tp5268
(lp5269
(g197
S'number'
p5270
S'74'
p5271
S'23'
p5272
tp5273
as(g1
I123
tp5274
(lp5275
(g263
S'token'
p5276
S'193'
p5277
S'32'
p5278
tp5279
as(g1
I159
tp5280
(lp5281
(g63
g63
S'201'
p5282
S'38'
p5283
tp5284
a(g1
I158
tp5285
a(g68
g68
S'201'
p5286
S'71'
p5287
tp5288
as(g51
I17
tp5289
(lp5290
(g54
I4
tp5291
as(g1
I122
tp5292
(lp5293
(g1
I119
tp5294
a(g12
g12
S'192'
p5295
S'71'
p5296
tp5297
a(g1
I121
tp5298
as(g1
I225
tp5299
(lp5300
(S'valid_waiting'
p5301
S'token'
p5302
S'221'
p5303
S'56'
p5304
tp5305
as(g90
I12
tp5306
(lp5307
(g90
I11
tp5308
a(g210
g210
S'70'
p5309
S'51'
p5310
tp5311
a(g93
I12
tp5312
as(g1
I176
tp5313
(lp5314
(S'returned_req'
p5315
S'token'
p5316
S'207'
p5317
S'82'
p5318
tp5319
as(g1
I92
tp5320
(lp5321
(S'returned_inflight'
p5322
S'token'
p5323
S'157'
p5324
S'30'
p5325
tp5326
as(g110
I44
tp5327
(lp5328
(S'read_dep_waiting'
p5329
S'token'
p5330
S'209'
p5331
S'24'
p5332
tp5333
as(g1
I203
tp5334
(lp5335
(g1
I201
tp5336
a(g12
g12
S'211'
p5337
S'51'
p5338
tp5339
a(g1
I202
tp5340
as(g154
I17
tp5341
(lp5342
(S'logic'
p5343
S'logic'
p5344
S'79'
p5345
S'13'
p5346
tp5347
as(g54
I24
tp5348
(lp5349
(S'assign'
p5350
S'assign'
p5351
S'226'
p5352
g108
tp5353
a(g110
I52
tp5354
a(g136
g136
S'226'
p5355
S'25'
p5356
tp5357
a(g1
I255
tp5358
a(g141
g141
S'226'
p5359
S'56'
p5360
tp5361
as(g93
I8
tp5362
(lp5363
(g147
I8
tp5364
a(S'apu_singlecycle_o'
p5365
S'token'
p5366
S'61'
p5367
S'56'
p5368
tp5369
as(g90
I22
tp5370
(lp5371
(g90
I21
tp5372
a(g210
g210
S'86'
p5373
S'56'
p5374
tp5375
a(g93
I22
tp5376
as(g1
I30
tp5377
(lp5378
(S'stall_full'
p5379
S'token'
p5380
S'111'
p5381
S'46'
p5382
tp5383
as(g256
I24
tp5384
(lp5385
(g256
I23
tp5386
a(g184
I30
tp5387
as(g102
I18
tp5388
(lp5389
(S'output'
p5390
S'output'
p5391
S'80'
p5392
g108
tp5393
as(g110
I22
tp5394
(lp5395
(S'addr_waiting_dn'
p5396
S'token'
p5397
S'150'
p5398
S'25'
p5399
tp5400
as(g56
I39
tp5401
(lp5402
(g51
I8
tp5403
a(g56
I38
tp5404
as(g1
I45
tp5405
(lp5406
(g1
I42
tp5407
a(g12
g12
S'120'
p5408
S'67'
p5409
tp5410
a(g1
I44
tp5411
as(g51
I6
tp5412
(lp5413
(g215
I6
tp5414
as(g1
I37
tp5415
(lp5416
(S'valid_req'
p5417
S'token'
p5418
S'114'
p5419
S'32'
p5420
tp5421
as(g184
I17
tp5422
(lp5423
(g110
I19
tp5424
a(g136
g136
S'146'
p5425
S'28'
p5426
tp5427
a(g1
I80
tp5428
a(g141
g141
S'146'
p5429
S'34'
p5430
tp5431
as(g90
I13
tp5432
(lp5433
(g90
I12
tp5434
a(g210
g210
S'71'
p5435
S'57'
p5436
tp5437
a(g93
I13
tp5438
as(g202
I27
tp5439
(lp5440
(S'write_dep_inflight'
p5441
S'token'
p5442
S'106'
p5443
S'47'
p5444
tp5445
a(g210
g210
S'106'
p5446
S'48'
p5447
tp5448
a(g202
I26
tp5449
as(g215
I6
tp5450
(lp5451
(g218
I6
tp5452
a(g202
I14
tp5453
a(g141
g141
S'98'
p5454
S'34'
p5455
tp5456
as(g224
I4
tp5457
(lp5458
(g176
I4
tp5459
a(g184
I55
tp5460
as(g1
I133
tp5461
(lp5462
(g263
S'token'
p5463
S'194'
p5464
S'50'
p5465
tp5466
as(g184
I11
tp5467
(lp5468
(S'if'
p5469
S'if'
p5470
S'126'
p5471
g547
tp5472
a(g63
g63
S'126'
p5473
g174
tp5474
a(g1
I63
tp5475
a(g68
g68
S'126'
p5476
S'14'
p5477
tp5478
a(g184
I5
tp5479
a(S'else'
p5480
S'else'
p5481
S'131'
p5482
S'11'
p5483
tp5484
a(g184
I10
tp5485
as(g1
I25
tp5486
(lp5487
(g685
S'number'
p5488
S'103'
p5489
g2169
tp5490
as(g154
I28
tp5491
(lp5492
(S'logic'
p5493
S'logic'
p5494
S'98'
p5495
g174
tp5496
as(g1
I128
tp5497
(lp5498
(g63
g63
S'193'
p5499
S'37'
p5500
tp5501
a(g1
I127
tp5502
a(g68
g68
S'193'
p5503
S'69'
p5504
tp5505
as(g1
I19
tp5506
(lp5507
(g547
S'number'
p5508
S'92'
p5509
g2169
tp5510
as(g51
I22
tp5511
(lp5512
(g54
I7
tp5513
as(g56
I32
tp5514
(lp5515
(g51
I15
tp5516
a(g56
I31
tp5517
as(g1
I99
tp5518
(lp5519
(S"'0"
p5520
S'udig'
p5521
S'165'
p5522
S'31'
p5523
tp5524
as(g1
I234
tp5525
(lp5526
(S'apu_lat_i'
p5527
S'token'
p5528
S'225'
p5529
S'79'
p5530
tp5531
as(g1
I69
tp5532
(lp5533
(S'valid_waiting_dn'
p5534
S'token'
p5535
S'133'
p5536
S'41'
p5537
tp5538
as(g110
I55
tp5539
(lp5540
(S'apu_master_ready_o'
p5541
S'token'
p5542
S'237'
p5543
S'26'
p5544
tp5545
as(g56
I10
tp5546
(lp5547
(g51
I37
tp5548
a(g56
I9
tp5549
as(g1
I204
tp5550
(lp5551
(S'returned_inflight'
p5552
S'token'
p5553
S'211'
p5554
S'87'
p5555
tp5556
as(g54
I17
tp5557
(lp5558
(S'assign'
p5559
S'assign'
p5560
S'210'
p5561
g108
tp5562
a(g110
I45
tp5563
a(g136
g136
S'210'
p5564
S'28'
p5565
tp5566
a(g1
I199
tp5567
a(g141
g141
S'210'
p5568
S'83'
p5569
tp5570
as(g147
I16
tp5571
(lp5572
(g102
I16
tp5573
a(g154
I16
tp5574
as(g184
I54
tp5575
(lp5576
(S'if'
p5577
S'if'
p5578
S'246'
p5579
g547
tp5580
a(g63
g63
S'246'
p5581
g174
tp5582
a(g1
I268
tp5583
a(g68
g68
S'246'
p5584
S'23'
p5585
tp5586
a(g184
I53
tp5587
as(g102
I9
tp5588
(lp5589
(S'output'
p5590
S'output'
p5591
S'64'
p5592
g108
tp5593
as(g154
I11
tp5594
(lp5595
(S'logic'
p5596
S'logic'
p5597
S'70'
p5598
S'13'
p5599
tp5600
as(g110
I25
tp5601
(lp5602
(S'valid_inflight_dn'
p5603
S'token'
p5604
S'158'
p5605
S'24'
p5606
tp5607
as(g1
I214
tp5608
(lp5609
(S'read_dep_req'
p5610
S'token'
p5611
S'214'
p5612
S'41'
p5613
tp5614
as(g579
I5
tp5615
(lp5616
(g398
I6
tp5617
as(g54
I11
tp5618
(lp5619
(S'assign'
p5620
S'assign'
p5621
S'200'
p5622
S'11'
p5623
tp5624
a(g110
I39
tp5625
a(g136
g136
S'200'
p5626
S'36'
p5627
tp5628
a(g1
I153
tp5629
a(g141
g141
S'200'
p5630
S'96'
p5631
tp5632
as(g1
I266
tp5633
(lp5634
(S'returned_inflight'
p5635
S'token'
p5636
S'244'
p5637
S'23'
p5638
tp5639
as(g465
I1
tp5640
(lp5641
(S'generate'
p5642
S'generate'
p5643
S'190'
p5644
g2169
tp5645
a(g579
I4
tp5646
a(S'endgenerate'
p5647
S'endgenerate'
p5648
S'196'
p5649
S'12'
p5650
tp5651
as(g147
I1
tp5652
(lp5653
(g102
I1
tp5654
a(g154
I1
tp5655
as(g110
I3
tp5656
(lp5657
(S'req_accepted'
p5658
S'token'
p5659
S'114'
p5660
S'20'
p5661
tp5662
as(g154
I5
tp5663
(lp5664
(S'logic'
p5665
S'logic'
p5666
S'56'
p5667
S'12'
p5668
tp5669
as(g398
I5
tp5670
(lp5671
(g401
I1
tp5672
as(g1
I167
tp5673
(lp5674
(g1
I165
tp5675
a(S'=='
p5676
S'eq_eq'
p5677
S'202'
p5678
S'56'
p5679
tp5680
a(g1
I166
tp5681
as(g184
I2
tp5682
(lp5683
(g110
I8
tp5684
a(S'<='
p5685
S'sm_eq'
p5686
S'128'
p5687
S'24'
p5688
tp5689
a(g1
I65
tp5690
a(g141
g141
S'128'
p5691
S'30'
p5692
tp5693
as(g1
I189
tp5694
(lp5695
(g1
I187
tp5696
a(g12
g12
S'209'
p5697
S'51'
p5698
tp5699
a(g1
I188
tp5700
as(g1
I2
tp5701
(lp5702
(g197
S'number'
p5703
S'55'
p5704
S'17'
p5705
tp5706
as(g202
I4
tp5707
(lp5708
(S'addr_waiting_dn'
p5709
S'token'
p5710
S'93'
p5711
S'54'
p5712
tp5713
as(g1
I137
tp5714
(lp5715
(g63
g63
S'194'
p5716
S'37'
p5717
tp5718
a(g1
I136
tp5719
a(g68
g68
S'194'
p5720
S'68'
p5721
tp5722
as(g51
I31
tp5723
(lp5724
(g54
I19
tp5725
as(g693
I2
tp5726
(lp5727
(g696
I2
tp5728
as(g256
I12
tp5729
(lp5730
(g256
I11
tp5731
a(g184
I15
tp5732
as(g1
I100
tp5733
(lp5734
(S'valid_inflight'
p5735
S'token'
p5736
S'173'
p5737
S'31'
p5738
tp5739
as(g696
I4
tp5740
(lp5741
(g110
I38
tp5742
a(S'++'
p5743
S'plusplus'
p5744
S'199'
p5745
S'32'
p5746
tp5747
as(g17
I1
tp5748
(lp5749
(g20
g20
S'192'
p5750
S'26'
p5751
tp5752
a(g1
I114
tp5753
a(g25
g25
S'192'
p5754
S'28'
p5755
tp5756
as(g1
I147
tp5757
(lp5758
(S'write_regs_i'
p5759
S'token'
p5760
S'200'
p5761
S'50'
p5762
tp5763
a(g17
I11
tp5764
as(g36
I14
tp5765
(lp5766
(g20
g20
S'104'
p5767
g495
tp5768
a(g1
I27
tp5769
a(g43
g43
S'104'
p5770
S'10'
p5771
tp5772
a(g1
I28
tp5773
a(g25
g25
S'104'
p5774
S'12'
p5775
tp5776
as(g51
I37
tp5777
(lp5778
(g54
I25
tp5779
as(g1
I78
tp5780
(lp5781
(g74
g74
S'145'
p5782
S'24'
p5783
tp5784
a(g1
I77
tp5785
as(g1
I269
tp5786
(lp5787
(S'addr_waiting'
p5788
S'token'
p5789
S'247'
p5790
S'31'
p5791
tp5792
as(g1
I245
tp5793
(lp5794
(S'apu_lat_i'
p5795
S'token'
p5796
S'225'
p5797
S'118'
p5798
tp5799
as(g56
I28
tp5800
(lp5801
(g51
I19
tp5802
a(g56
I27
tp5803
as(g1
I178
tp5804
(lp5805
(g1
I175
tp5806
a(g12
g12
S'207'
p5807
S'68'
p5808
tp5809
a(g1
I177
tp5810
as(g1
I80
tp5811
(lp5812
(S"1'b1"
p5813
S'bin'
p5814
S'146'
p5815
S'30'
p5816
tp5817
as(g110
I32
tp5818
(lp5819
(S'apu_lat'
p5820
S'token'
p5821
S'178'
p5822
S'12'
p5823
tp5824
as(g1
I223
tp5825
(lp5826
(g1
I221
tp5827
a(g295
g295
S'215'
p5828
S'65'
p5829
tp5830
a(g1
I222
tp5831
as(g154
I19
tp5832
(lp5833
(S'logic'
p5834
S'logic'
p5835
S'84'
p5836
S'13'
p5837
tp5838
as(g54
I4
tp5839
(lp5840
(S'assign'
p5841
S'assign'
p5842
S'120'
p5843
g108
tp5844
a(g110
I4
tp5845
a(g136
g136
S'120'
p5846
S'27'
p5847
tp5848
a(g1
I48
tp5849
a(g141
g141
S'120'
p5850
S'101'
p5851
tp5852
as(g93
I4
tp5853
(lp5854
(g147
I4
tp5855
a(g36
I1
tp5856
a(S'apu_lat_i'
p5857
S'token'
p5858
S'55'
p5859
S'48'
p5860
tp5861
as(g256
I31
tp5862
(lp5863
(g184
I44
tp5864
as(g184
I35
tp5865
(lp5866
(S'begin'
p5867
S'begin'
p5868
S'163'
p5869
S'36'
p5870
tp5871
a(g256
I27
tp5872
a(S'end'
p5873
S'end'
p5874
S'166'
p5875
g108
tp5876
as(g110
I10
tp5877
(lp5878
(S'addr_waiting'
p5879
S'token'
p5880
S'130'
p5881
S'17'
p5882
tp5883
as(g1
I33
tp5884
(lp5885
(g63
g63
S'111'
p5886
S'36'
p5887
tp5888
a(g1
I32
tp5889
a(g68
g68
S'111'
p5890
S'60'
p5891
tp5892
as(g1
I277
tp5893
(lp5894
(S'valid_inflight'
p5895
S'token'
p5896
S'258'
p5897
S'44'
p5898
tp5899
as(g1
I168
tp5900
(lp5901
(g63
g63
S'202'
p5902
S'38'
p5903
tp5904
a(g1
I167
tp5905
a(g68
g68
S'202'
p5906
S'70'
p5907
tp5908
as(g184
I5
tp5909
(lp5910
(S'begin'
p5911
S'begin'
p5912
S'126'
p5913
S'20'
p5914
tp5915
a(g256
I4
tp5916
a(S'end'
p5917
S'end'
p5918
S'131'
p5919
g174
tp5920
as(g1
I11
tp5921
(lp5922
(g685
S'number'
p5923
S'71'
p5924
S'16'
p5925
tp5926
as(g202
I15
tp5927
(lp5928
(S'active'
p5929
S'token'
p5930
S'99'
p5931
S'27'
p5932
tp5933
as(g215
I10
tp5934
(lp5935
(g218
I10
tp5936
a(g36
I14
tp5937
a(g202
I22
tp5938
a(g141
g141
S'104'
p5939
S'69'
p5940
tp5941
as(g1
I135
tp5942
(lp5943
(S'addr_waiting'
p5944
S'token'
p5945
S'194'
p5946
S'67'
p5947
tp5948
as(g51
I4
tp5949
(lp5950
(g215
I4
tp5951
as.